(dp0
VT Thushara
p1
I49677
sVCM Old
p2
I18256
sVAJ Bichel
p3
I4146
sVCR Browne
p4
I51234
sVGR Loveridge
p5
I37609
sVMJ Macaulay
p6
I46150
sVHanumant Singh
p7
I29260
sVMJ Guptill
p8
I226492
sVBhupinder Singh snr
p9
I26942
sVGB Hogg
p10
I5681
sVGT Dowling
p11
I36837
sVJB Gannon
p12
I5358
sVV Sehwag
p13
I35263
sVZafar Iqbal
p14
I43692
sVLG Howell
p15
I37257
sVS Madan Lal
p16
I30873
sVIjaz Faqih
p17
I40556
sVWW Daniel
p18
I51639
sVMF Maharoof
p19
I49638
sVN Deonarine
p20
I51659
sVCR Brathwaite
p21
I457249
sVEA van der Merwe
p22
I47689
sVJames Langridge
p23
I16195
sVJD Higgs
p24
I5652
sVCAK Rajitha
p25
I499594
sVTJE Andrews
p26
I3971
sVFLH Mooney
p27
I37726
sVGF Rorke
p28
I7395
sVCEW Silverwood
p29
I20193
sVMJ Lumb
p30
I16406
sVUsman Salahuddin
p31
I260519
sVD Ganga
p32
I51872
sVPL Symcox
p33
I47267
sVRW Barber
p34
I8982
sVCR Ervine
p35
I55412
sVXM Marshall
p36
I52626
sVDK Morrison
p37
I37730
sVSS Naik
p38
I31778
sVRE Bryson
p39
I44138
sVTB Burtt
p40
I36316
sVD Gamsy
p41
I45214
sVGR Robertson
p42
I7366
sVJ Nyumbu
p43
I55666
sVW Rhodes
p44
I19376
sVPHT Kaushal
p45
I465797
sVIjaz Butt
p46
I40555
sVC Bannerman
p47
I4091
sVA Cotter
p48
I4632
sVAL Padmore
p49
I52667
sVJW Dernbach
p50
I12461
sVNG Cowans
p51
I10839
sVHJ Tayfield
p52
I47531
sVPW Jarvis
p53
I15485
sVPADLR Sandakan
p54
I429738
sVGM Strydom
p55
I55782
sVB Lee
p56
I6278
sVBM McMillan
p57
I46214
sVM Zondeki
p58
I48112
sVDJ White
p59
I38749
sVDD Beard
p60
I36290
sVPA Strang
p61
I55758
sVR Mutumbami
p62
I235516
sVCMW Read
p63
I19346
sVAwais Zia
p64
I278491
sVTA Lloyd
p65
I16322
sVF Morley
p66
I17092
sVMG Burgess
p67
I36314
sVP Wilson
p68
I8241
sVRM Ellison
p69
I12507
sVHD Bromfield
p70
I44124
sVPC de Silva
p71
I345825
sVMohammad Yousuf
p72
I43650
sVS Amarnath
p73
I26226
sVS Wettimuny
p74
I50844
sVNA Foster
p75
I12879
sVCH Mills
p76
I46229
sVPD McGlashan
p77
I37770
sVMohammad Salman
p78
I41481
sVP Negi
p79
I530773
sVGhulam Abbas
p80
I40303
sVDE Malcolm
p81
I16885
sVBA Pocock
p82
I38127
sVTN Madondo
p83
I55571
sVCF Root
p84
I19471
sVShujauddin
p85
I42660
sVB Mitchell
p86
I46233
sVF Mitchell
p87
I17048
sVWH St Hill
p88
I52951
sVRJ Christiani
p89
I51473
sVAJ Tye
p90
I459508
sVTL Goddard
p91
I45234
sVVA Valentine
p92
I53197
sVA Shaw
p93
I20137
sVAL Mann
p94
I6477
sVMHN Walker
p95
I8137
sVA Gandotra
p96
I28772
sVSajjad Akbar
p97
I42612
sVAIC Dodemaide
p98
I4964
sVKP Pietersen
p99
I19296
sVCZ Harris
p100
I37232
sVCE Finlason
p101
I45051
sVMJ Cosgrove
p102
I4818
sVCJ Ferguson
p103
I5236
sVDL Vettori
p104
I38710
sVFJ Laver
p105
I6402
sVCV Grimmett
p106
I5443
sVGW Flower
p107
I55429
sVIR Redpath
p108
I7314
sVRPAH Wickramaratne
p109
I50846
sVShadab Khan
p110
I922943
sVMV Nagamootoo
p111
I52630
sVOAC Banks
p112
I51258
sVMT Chinouya
p113
I55353
sVS Sriram
p114
I34118
sVSD Hope
p115
I581379
sVWaqar Younis
p116
I43543
sVCS Martin
p117
I37700
sVRH Catterall
p118
I44427
sVEAE Baptiste
p119
I51211
sVMT Renshaw
p120
I722303
sVJA Maclean
p121
I6452
sVTAP Sekhar
p122
I33891
sVXJ Doherty
p123
I5017
sVPGV van der Bijl
p124
I47681
sVPB Dassanayake
p125
I48445
sVBMAJ Mendis
p126
I49700
sVIM Chappell
p127
I4560
sVAF Lissette
p128
I37608
sVWasim Akram
p129
I43547
sVGWF Overton
p130
I38065
sVOG Smith
p131
I52941
sVD Pretorius
p132
I327830
sVSahibzada Farhan
p133
I647785
sVLB Taylor
p134
I21486
sVJ Arun Lal
p135
I26295
sVNO Miller
p136
I52622
sVCB Jennings
p137
I6023
sVWJ Whitty
p138
I8222
sVSG Law
p139
I6274
sVDA Marillier
p140
I55578
sVJM Neblett
p141
I52632
sVMG Johnson
p142
I6033
sVJK Lever
p143
I16260
sVJaved Qadeer
p144
I40880
sVFaheem Ashraf
p145
I681117
sVAD Gaekwad
p146
I28754
sVHJ Butler
p147
I9331
sVGM Ewing
p148
I55419
sVBF Butcher
p149
I51239
sVAE Relf
p150
I19365
sVPS Heine
p151
I45428
sVTA Harris
p152
I45414
sVRandhir Singh
p153
I33085
sVRAP Nissanka
p154
I49769
sVMahmood Hussain
p155
I41267
sVJAJ Christy
p156
I44440
sVGS Blewett
p157
I4161
sVRB Kanhai
p158
I52287
sVSB Smith
p159
I7656
sVL Ngidi
p160
I542023
sVN Madziva
p161
I453289
sVSaleem Yousuf
p162
I42626
sVJJ Ferris
p163
I5225
sVARA Murray
p164
I46264
sVAizaz Cheema
p165
I39821
sVRD Jacobs
p166
I52199
sVB Reddy
p167
I33152
sVRTD Perks
p168
I18504
sVRR Beaton
p169
I498440
sVJM Gregory
p170
I5435
sVMC Mendis
p171
I49631
sVMC Cowdrey
p172
I10846
sVJ Middleton
p173
I46227
sVSaleem Malik
p174
I42623
sVDJ Gandhi
p175
I28770
sVDS Mohanty
p176
I31025
sVMS Crane
p177
I660889
sVHMCM Bandara
p178
I48284
sVMS Atapattu
p179
I48124
sVLMP Simmons
p180
I53116
sVAR Nurse
p181
I315594
sVSaleem Altaf
p182
I42616
sVPWE Rawson
p183
I55710
sVJWH Makepeace
p184
I16882
sVCB Lambert
p185
I25635
sVR Ashwin
p186
I26421
sVDR Parry
p187
I52670
sVGS Chappell
p188
I4558
sVZulqarnain
p189
I43707
sVAM Stuart
p190
I7691
sVOC Scott
p191
I52925
sVTS Chisoro
p192
I235519
sVAM McCarthy
p193
I230556
sVHon.FS Jackson
p194
I15463
sVGH Shepstone
p195
I47185
sVAM de Silva
p196
I48450
sVLall Singh
p197
I30743
sVMF Kent
p198
I6143
sVW Bardsley
p199
I4095
sVDS de Silva
p200
I48454
sVJO Troughton
p201
I21598
sVPE Palia
p202
I32157
sVGR Larsen
p203
I37601
sVGL Jessop
p204
I15509
sVWM Woodfull
p205
I8246
sVBasit Ali
p206
I39954
sVSH Emery
p207
I5140
sVShadab Kabir
p208
I42634
sVJDS Neesham
p209
I355269
sVNM Kulkarni
p210
I30149
sVPE Whitelaw
p211
I38748
sVGS Camacho
p212
I51457
sVGP Sulzberger
p213
I38411
sVFR Brown
p214
I9255
sVDR Gilbert
p215
I5385
sVM Mbangwa
p216
I55584
sVNaushad Ali
p217
I42061
sVDA Renneberg
p218
I7328
sVJFM Morrison
p219
I37731
sVSC Cook
p220
I44656
sVVA Holder
p221
I52061
sVJC Kent
p222
I45800
sVHDPK Dharmasena
p223
I48469
sVBH Valentine
p224
I22173
sVDI Gower
p225
I13418
sVCAG Russell
p226
I19497
sVCA Walsh
p227
I53216
sVAR Border
p228
I4174
sVGR Breese
p229
I51244
sVAS Joseph
p230
I670031
sVOC Dawson
p231
I44683
sVIqbal Sikander
p232
I40574
sVWA Shalders
p233
I47181
sVAW Roberts
p234
I38254
sVPR Umrigar
p235
I35577
sVMB Owens
p236
I38066
sVB Mavuta
p237
I806239
sVNS Harford
p238
I37229
sVCM Kuggeleijn
p239
I37532
sVCJ Eady
p240
I5115
sVAR Tait
p241
I38608
sVLJ Woodcock
p242
I38920
sVBKV Prasad
p243
I32345
sVGJ Rennie
p244
I55713
sVRS Bopara
p245
I10582
sVMA Atherton
p246
I8579
sVGRJ Roope
p247
I19469
sVRGM Patel
p248
I32249
sVCS Cowdrey
p249
I10843
sVB Dooland
p250
I4971
sVPC Charlton
p251
I4563
sVIAR Peebles
p252
I18488
sVRN Lewis
p253
I52343
sVCJPG van Zyl
p254
I47715
sVA Jackson
p255
I6000
sVGC Shillingford
p256
I52930
sVJH Cameron
p257
I51460
sVCM Francois
p258
I45074
sVH Masakadza
p259
I55608
sVDS Smith
p260
I52962
sVAGD Wickremasinghe
p261
I50851
sVAR Gover
p262
I13416
sVHDRL Thirimanne
p263
I301236
sVDP Nannes
p264
I6981
sVJ Louw
p265
I46075
sVDL Underwood
p266
I22149
sVCM Willoughby
p267
I47903
sVGA Hick
p268
I14187
sVAC Voges
p269
I8119
sVAJ Strauss
p270
I20387
sVDC Thomas
p271
I248920
sVPR Carlstein
p272
I44424
sVGO Jones
p273
I15501
sVW Carkeek
p274
I4533
sVIjaz Ahmed
p275
I40551
sVHP Rinke
p276
I55737
sVWL Cornford
p277
I10817
sVRO Butcher
p278
I9329
sVCU Jayasinghe
p279
I49287
sVKG Duers
p280
I55382
sVRW McLeod
p281
I6585
sVBT Watambwa
p282
I55843
sVFRMD Gunatilleke
p283
I49081
sVM Dillon
p284
I51651
sVRW Anderson
p285
I36180
sVRA Saggers
p286
I7551
sVPI Philpott
p287
I7117
sVBC Booth
p288
I4171
sVJ Yadav
p289
I447587
sVMP Jarvis
p290
I55525
sVBD Milburn
p291
I37718
sVSMA Priyanjan
p292
I233802
sVSG Shinde
p293
I33999
sVKS More
p294
I31038
sVML Nkala
p295
I55663
sVGOB Allen
p296
I8515
sVMAK Pataudi
p297
I32222
sVVM Muddiah
p298
I31045
sVML Cummins
p299
I556749
sVJW Hastings
p300
I228622
sVC Milburn
p301
I17018
sVJS Paris
p302
I501012
sVJ Darling
p303
I4897
sVRB Simpson
p304
I7619
sVCL White
p305
I8291
sVGG Arnold
p306
I8566
sVDR Brown
p307
I9254
sVEO Simons
p308
I47190
sVRS Sodhi
p309
I34078
sVRJ Bailey
p310
I8942
sVIJ Siedle
p311
I47188
sVM Venkataramana
p312
I35657
sVGHS Trott
p313
I7974
sVImran Farhat
p314
I40582
sVRO Schwarz
p315
I47168
sVBA Edgar
p316
I36951
sVAM Rahane
p317
I277916
sVGhulam Ahmed
p318
I28821
sVB Andrews
p319
I36183
sVRP Burl
p320
I495964
sVAC Cummins
p321
I51488
sVMRJ Veletta
p322
I8105
sVKM Jadhav
p323
I290716
sVDAJ Bracewell
p324
I362541
sVEAB Rowan
p325
I47005
sVCD McMillan
p326
I37712
sVMA Seymour
p327
I47179
sVAFA Lilley
p328
I16293
sVCE Pellew
p329
I7099
sVED Solkar
p330
I34085
sVLF Kline
p331
I6159
sVDP Hyatt
p332
I52197
sVSC Ganguly
p333
I28779
sVMW Pringle
p334
I46790
sVS Dhawan
p335
I28235
sVH Carter
p336
I4542
sVRH Shodhan
p337
I34007
sVKM Rangnekar
p338
I33091
sVGPD Hartigan
p339
I45415
sVVN Swamy
p340
I34189
sVV Yadav
p341
I36069
sVBP Bracewell
p342
I36304
sVSG Borthwick
p343
I310519
sVFE Rumsey
p344
I19494
sVC Kieswetter
p345
I230855
sVWasim Haider
p346
I43550
sVRE Marshall
p347
I52422
sVR Chandrika
p348
I316153
sVDW Allan
p349
I51104
sVHM Nicholls
p350
I539511
sVK Weeraratne
p351
I50860
sVArshad Pervez
p352
I39006
sVRH Vance
p353
I38707
sVK Higgs
p354
I14189
sVMohammad Nawaz (3)
p355
I348148
sVRS Higgins
p356
I55518
sVMS Sinclair
p357
I38393
sVCD Dixon
p358
I44709
sVPB Truscott
p359
I38618
sVMohammad Rizwan
p360
I323389
sVS Haigh
p361
I13992
sVKR Stackpole
p362
I7666
sVLA Pomersbach
p363
I232284
sVRA Harper
p364
I52045
sVKF Barrington
p365
I9014
sVKA Hope
p366
I443150
sVDT Ring
p367
I7357
sVS Shillingford
p368
I52997
sVMD Wettimuny
p369
I50879
sVFA Ward
p370
I8157
sVKR Pushpakumara
p371
I49863
sVWA Brown
p372
I4225
sVAE Moss
p373
I17114
sVSV Samuelson
p374
I47157
sVA Maregwede
p375
I55573
sVLA Walcott
p376
I53212
sVAER Gilligan
p377
I13372
sVPVD Chameera
p378
I552152
sVPA Emery
p379
I5139
sVRajinder Pal
p380
I33028
sVSE Marsh
p381
I6683
sVA Martin
p382
I245373
sVGE Mathurin
p383
I252940
sVLRPL Taylor
p384
I38699
sVCPS Chauhan
p385
I27619
sVHV Baumgartner
p386
I44056
sVGRA de Silva
p387
I48458
sVHC Griffith
p388
I51909
sVM Bisset
p389
I44079
sVIW Callen
p390
I4517
sVW Ferguson
p391
I51788
sVAtif Rauf
p392
I39018
sVCG Fichardt
p393
I45048
sVSE Gregory
p394
I5438
sVPT Barton
p395
I36289
sVDM Washington
p396
I53355
sVT Duffin
p397
I55391
sVPH Punjabi
p398
I32371
sVMDK Perera
p399
I49920
sVYuvraj of Patiala
p400
I32278
sVASA Perera
p401
I49854
sVPBH May
p402
I16956
sVEDAS McMorris
p403
I52512
sVBP Patel
p404
I32231
sVHA Furlonge
p405
I51800
sVPR Sleep
p406
I7630
sVMA Hanley
p407
I45408
sVGH Worker
p408
I277911
sVMD Stoneman
p409
I229954
sVMohammad Zahid
p410
I41299
sVE Paynter
p411
I18475
sVShahid Anwar
p412
I42641
sVR Pollard
p413
I18561
sVSI de Saram
p414
I48449
sVTV Mufambisi
p415
I55643
sVAC Thomas
p416
I47569
sVMR Gillespie
p417
I37111
sVKA Walter
p418
I47863
sVJD Nel
p419
I46570
sVAW Mathieson
p420
I355267
sVS Abid Ali
p421
I26169
sVHarry Elliott
p422
I12504
sVTahir Naqqash
p423
I43271
sVBR Knight
p424
I15910
sVSL Boock
p425
I36303
sVBD Julien
p426
I52208
sVRJ Quiney
p427
I211854
sVJA Rudolph
p428
I47015
sVPK Sen
p429
I34741
sVV Shankar
p430
I477021
sVWGA Parkhouse
p431
I18426
sVShahzaib Hasan
p432
I370846
sVDJM Short
p433
I308798
sVPE McIntyre
p434
I6573
sVTAM Siriwardana
p435
I222354
sVSL Stewart
p436
I38418
sVR Lamba
p437
I30745
sVG Cook
p438
I10793
sVAnil Dalpat
p439
I38999
sVShakeel Ansar
p440
I42814
sVCP Tremain
p441
I553800
sVKS Duleepsinhji
p442
I11951
sVGD Barlow
p443
I8990
sVTN Garwe
p444
I55472
sVG Millman
p445
I17032
sVMM Ali
p446
I8917
sVDilawar Hussain
p447
I28092
sVC Overton
p448
I464626
sVD Ranatunga
p449
I50245
sVMaqsood Ahmed
p450
I41270
sVSJ Staples
p451
I20339
sVJ Hardstaff jnr
p452
I14041
sVIA Colquhoun
p453
I36607
sVDD Taylor
p454
I38610
sVD Denton
p455
I11875
sVNC McGarrell
p456
I52428
sVMK Elgie
p457
I44955
sVNV Knight
p458
I15913
sVMasood Anwar
p459
I41273
sVESH Giddins
p460
I13362
sVJH Hampshire
p461
I14024
sVJC White
p462
I22408
sVNRD Compton
p463
I11718
sVCH Lloyd
p464
I52345
sVNaseer Malik
p465
I42055
sVMH Tissera
p466
I50745
sVLE Favell
p467
I5220
sVBJ Rohrer
p468
I7547
sVBK Shepherd
p469
I7604
sVDSK Madushanka
p470
I1043681
sVNJ Astle
p471
I36185
sVEP Thompson
p472
I38626
sVR Kaia
p473
I392946
sVFawad Ahmed
p474
I240609
sVKK Peters
p475
I52796
sVAnwar Ali
p476
I232491
sVLJ Tancred
p477
I47522
sVY Goonasekera
p478
I48996
sVV Rajindernath
p479
I33027
sVDL Murray
p480
I52441
sVJT Tyldesley
p481
I21636
sVAM Matheson
p482
I37702
sVVM Merchant
p483
I30996
sVDL Houghton
p484
I55497
sVS Venkataraghavan
p485
I35656
sVWP Howell
p486
I5716
sVDA Reeve
p487
I19364
sVBL D'Oliveira
p488
I11914
sVVG Kambli
p489
I30009
sVU Ranchod
p490
I55708
sVSP Davis
p491
I4923
sVGM Ritchie
p492
I7358
sVEQ Davies
p493
I44676
sVYashpal Sharma
p494
I36075
sVG Challenor
p495
I51467
sVHA Gomes
p496
I51891
sVDJ Worrall
p497
I557298
sVNE Marshall
p498
I52420
sVD Ramnarine
p499
I52805
sVWJ O'Reilly
p500
I7020
sVAftab Gul
p501
I38979
sVR Tattersall
p502
I21464
sVMA Starc
p503
I311592
sVARS Silva
p504
I237310
sVSL Malinga
p505
I49758
sVBR Hartland
p506
I37235
sVAP Grayson
p507
I13437
sVAJ Finch
p508
I5334
sVDJ Malan
p509
I236489
sVPN Webb
p510
I38745
sVS Lee
p511
I6282
sVDT Mutendera
p512
I55602
sVGO Rabone
p513
I38242
sVFI de Caires
p514
I51644
sVSD Parry
p515
I215058
sVSP Jones
p516
I6050
sVAP Gurusinha
p517
I49005
sVRM Cowper
p518
I4645
sVM de Lange
p519
I393279
sVFM King
p520
I52291
sVCE Bulfin
p521
I36312
sVZulfiqar Babar
p522
I43871
sVDV Dyer
p523
I44747
sVJD Lindsay
p524
I45991
sVHV Hordern
p525
I5706
sVMR Whitney
p526
I8220
sVLord Tennyson
p527
I21499
sVHP Tillakaratne
p528
I50744
sVCJ McKay
p529
I6903
sVCA Davis
p530
I51641
sVME Trescothick
p531
I21585
sVGAL Hearne
p532
I45424
sVS Nazir Ali
p533
I31816
sVLV Maddocks
p534
I6457
sVK Santokie
p535
I314622
sVHG Kuhn
p536
I45955
sVMohammad Wasim
p537
I41297
sVEL a'Beckett
p538
I3931
sVAE Hall
p539
I45394
sVGL Gibbs
p540
I51881
sVPP Chawla
p541
I32966
sVHT Davis
p542
I36825
sVAD Mullally
p543
I17121
sVHH Kanitkar
p544
I30018
sVMG Neser
p545
I376169
sVJL Langer
p546
I6256
sVS Nyalchand
p547
I31830
sVNJ Maddinson
p548
I333780
sVACL Richards
p549
I52918
sVAL Wadekar
p550
I35933
sVEB McSweeney
p551
I37714
sVP Holmes
p552
I14254
sVGK Robertson
p553
I38252
sVSarfraz Nawaz
p554
I42630
sVKJ Hughes
p555
I5724
sVRumman Raees
p556
I448243
sVDJ Capel
p557
I10653
sVRG Draper
p558
I44721
sVJJ Lyons
p559
I6328
sVRW Price
p560
I55698
sVR Sudhakar Rao
p561
I34136
sVFE Fisher
p562
I36998
sVM Hayward
p563
I45419
sVTRO Payne
p564
I52672
sVEW Clark
p565
I10739
sVTT Bresnan
p566
I9310
sVAMJ Hilditch
p567
I5656
sVAB Fudadin
p568
I51866
sVJL Cox
p569
I44474
sVKD Mills
p570
I37740
sVCJ Drum
p571
I36839
sVRG Archer
p572
I3980
sVPDRL Perera
p573
I49870
sVOF Smith
p574
I820691
sVMG Grell
p575
I51903
sVAO Jones
p576
I15534
sVW Bell
p577
I36295
sVJP Maher
p578
I6462
sVJB Plimsoll
p579
I46765
sVWW Read
p580
I19352
sVKhalid Wazir
p581
I41041
sVAAW Gunawardena
p582
I49002
sVAP Kuiper
p583
I45840
sVSL Campbell
p584
I51462
sVMJ Prior
p585
I18675
sVTMK Mawoyo
p586
I55597
sVJ Botha
p587
I44149
sVDA Miller
p588
I321777
sVCJ Dala
p589
I545467
sVW Mathias
p590
I41278
sVZafar Gohar
p591
I348154
sVYasir Arafat
p592
I43654
sVC Washbrook
p593
I22322
sVJC Gamage
p594
I48995
sVMujahid Jamshed
p595
I41310
sVGP Thorpe
p596
I21537
sVCK Singh
p597
I52935
sVCJ McDermott
p598
I6551
sVPG Fulton
p599
I37091
sVTaufeeq Umar
p600
I43363
sVBG Hadlee
p601
I37220
sVDJ Richardson
p602
I46978
sVRR Ramdass
p603
I52913
sVBN Schultz
p604
I47165
sVN Gallichan
p605
I37098
sVHK Jayantilal
p606
I29852
sVPM Pollock
p607
I46770
sVHJ Keith
p608
I45793
sVAP Wells
p609
I22361
sVRAL Massie
p610
I6518
sVMG Hughes
p611
I5726
sVCC Hunte
p612
I52070
sVDL Piedt
p613
I379926
sVSJ Harmison
p614
I14054
sVCTB Turner
p615
I7990
sVKD Karthik
p616
I30045
sVWKM Benjamin
p617
I51220
sVJE Benjamin
p618
I9069
sVJM Blanckenberg
p619
I44082
sVT Meale
p620
I37715
sVNasim-ul-Ghani
p621
I42057
sVPA Browne
p622
I51437
sVJM Anderson
p623
I8608
sVHLE Promnitz
p624
I46794
sVPD Heyn
p625
I49131
sVMW Tate
p626
I21462
sVW Larkins
p627
I16203
sVSK Ranasinghe
p628
I50242
sVKIW Wijegunawardene
p629
I50852
sVS Randiv
p630
I50438
sVNS Tamhane
p631
I35308
sVEG McLeod
p632
I37709
sVJM Mennie
p633
I439288
sVJL Carter
p634
I314615
sVHD Smith
p635
I38395
sVN Betancourt
p636
I51222
sVSR Clark
p637
I4582
sVEAS Prasanna
p638
I32357
sVNCL O'Neill
p639
I7015
sVLE Tapscott
p640
I47526
sVJDF Vandersay
p641
I370040
sVWCA Ganegama
p642
I49008
sVAgha Saadat Ali
p643
I38981
sVTL Seifert
p644
I625964
sVMJ Procter
p645
I46793
sVRL Harvey
p646
I45416
sVPM Toohey
p647
I7959
sVG Giffen
p648
I5382
sVPE McEwan
p649
I37703
sVGJ Crocker
p650
I55321
sVMA Lynch
p651
I16378
sVFL le Roux
p652
I45974
sVMisbah-ul-Haq
p653
I41378
sVAM Pai
p654
I32149
sVDS Kulkarni
p655
I277955
sVMA Meman
p656
I55591
sVW Brearley
p657
I9209
sVSM Patil
p658
I32283
sVAB Williams
p659
I53228
sVPM Pushpakumara
p660
I50205
sVAL Ochse
p661
I46674
sVEJ Barlow
p662
I44045
sVAA Mailey
p663
I6465
sVK Rabada
p664
I550215
sVTK Curran
p665
I550235
sVELR Stewart
p666
I47239
sVP Utseya
p667
I55820
sVAJ Ireland
p668
I55522
sVC White
p669
I22403
sVBGK Walker
p670
I38737
sVJ Benaud
p671
I4121
sVJTC Vaughan
p672
I38708
sVGJ Hopkins
p673
I37248
sVN Pothas
p674
I46780
sVL Ronchi
p675
I7502
sVTM Head
p676
I530011
sVMW Priest
p677
I38132
sVEB Lundie
p678
I46006
sVFT Mann
p679
I16893
sVAN Cook
p680
I11728
sVAC Parore
p681
I38117
sVLR Gibbs
p682
I51883
sVF Kasteni
p683
I55551
sVRO Scarlett
p684
I52923
sVMR Ramprakash
p685
I19323
sVAL Logie
p686
I52347
sVAG Chipperfield
p687
I4570
sVG Miller
p688
I17025
sVNT Broom
p689
I36581
sVJH Wardle
p690
I22288
sVCL McCool
p691
I6545
sVHS Williams
p692
I47900
sVA Khan
p693
I23911
sVJR Murray
p694
I52442
sVShakeel Khan
p695
I42652
sVRJ Westcott
p696
I47885
sVJR Thomson
p697
I7946
sVEAR de Silva
p698
I48456
sVP Lever
p699
I16262
sVSC Guillen
p700
I37106
sVSaadat Ali
p701
I42599
sVAW Powell
p702
I46782
sVMV Narasimha Rao
p703
I31795
sVAV Bedser
p704
I9057
sVIB Leggat
p705
I37606
sVTJ Matthews
p706
I6527
sVTJ Jenner
p707
I6022
sVMR Benson
p708
I9074
sVW Mwayenga
p709
I55640
sVAW Briscoe
p710
I44121
sVWP Masakadza
p711
I571703
sVGR Beard
p712
I4112
sVJH Anderson
p713
I43933
sVCH Vintcent
p714
I47737
sVMH Dekker
p715
I55367
sVBV Vitori
p716
I235514
sVKC Brathwaite
p717
I348024
sVGK Pandey
p718
I32168
sVIftikhar Ahmed
p719
I480603
sVS Shivnarine
p720
I52932
sVDL Maddy
p721
I16876
sVWA Wisneski
p722
I38755
sVE Lewis
p723
I431901
sVS Ranatunga
p724
I50247
sVTK Kendall
p725
I6141
sVWaqar Hasan
p726
I43541
sVMukhtar Ahmed
p727
I556916
sVAF Rae
p728
I52801
sVEC Petrie
p729
I38123
sVGB Lawrence
p730
I45967
sVAC Smith
p731
I20222
sVJG Navle
p732
I31806
sVSR Harmer
p733
I432960
sVLSM Miller
p734
I37719
sVR Howorth
p735
I14286
sVGE Tyldesley
p736
I21634
sVFA Iredale
p737
I5976
sVL Amar Singh
p738
I26228
sVSohail Khan
p739
I317252
sVAR Khurasiya
p740
I30112
sVKC James
p741
I37487
sVSP Pasqual
p742
I49852
sVMajid Khan
p743
I41919
sVAD Hales
p744
I249866
sVDJ Johnson
p745
I29712
sVLHD Dilhara
p746
I48487
sVJW Martin
p747
I6509
sVMS Chapman
p748
I438563
sVLH Ferguson
p749
I493773
sVDPB Morkel
p750
I46246
sVFE Woolley
p751
I22518
sVDR Smith
p752
I53118
sVFazl-e-Akbar
p753
I40094
sVBB McCullum
p754
I37737
sVJ Garner
p755
I51876
sVHB Cave
p756
I36600
sVBA Stokes
p757
I311158
sVN Ncube
p758
I333002
sVNaved Latif
p759
I42066
sVJL Ontong
p760
I46681
sVShabbir Ahmed
p761
I42632
sVV Kohli
p762
I253802
sVSE Findlay
p763
I51865
sVCKB Kulasekara
p764
I49477
sVJHB Waite
p765
I47857
sVAamer Sohail
p766
I38967
sVHussain Talat
p767
I628240
sVKA Edwards
p768
I51786
sVJT Botten
p769
I44109
sVM Henderson
p770
I37246
sVTW Hayward
p771
I14119
sVCR Miller
p772
I6607
sVP Dharmani
p773
I28067
sVR Nanan
p774
I52631
sVH Graham
p775
I5422
sVAEE Vogler
p776
I47739
sVTS Roland-Jones
p777
I370535
sVGD McGrath
p778
I6565
sVDV Lawrence
p779
I16219
sVMW Booth
p780
I9152
sVCA Best
p781
I51221
sVRWG Emery
p782
I36953
sVMW Rushmere
p783
I47011
sVM Kartik
p784
I30049
sVPJ Martin
p785
I16925
sVHR Adhikari
p786
I26179
sVCK Coventry
p787
I55329
sVRS Cunis
p788
I36628
sVMohammad Ayub
p789
I41557
sVRS Ghai
p790
I28808
sVBC Broad
p791
I9230
sVCH Parkin
p792
I18428
sVMJ Santner
p793
I502714
sVRGA Headley
p794
I52051
sVAB Dinda
p795
I227712
sVNV Lindsay
p796
I45992
sVKM Curran
p797
I55324
sVSikander Bakht
p798
I42661
sVJT Sparling
p799
I38399
sVTJ Friend
p800
I55438
sVT Emmett
p801
I12518
sVJC Laker
p802
I16172
sVSW Billings
p803
I297628
sVJ Cowie
p804
I36616
sVMI Black
p805
I51228
sVO Henry
p806
I45437
sVSB Joshi
p807
I29725
sVAhmed Shehzad
p808
I259410
sVShahid Israr
p809
I42643
sVR Powell
p810
I820351
sVSS Cottrell
p811
I495551
sVGJ Bonnor
p812
I4167
sVJR Hazlewood
p813
I288284
sVMahmood Hamid
p814
I41259
sVBK Kunderan
p815
I30178
sVJN Rhodes
p816
I46973
sVJDB Robertson
p817
I19423
sVDL Chahar
p818
I447261
sVMM Patel
p819
I32965
sVJM Read
p820
I19350
sVSF Rehman
p821
I42426
sVR Vijay Bharadwaj
p822
I35673
sVZaheer Abbas
p823
I43695
sVRG Barlow
p824
I8992
sVFarhan Adil
p825
I40097
sVAL Apte
p826
I26268
sVShakeel Ahmed jnr
p827
I42648
sVIJ Jones
p828
I15547
sVGD Lloyd
p829
I16320
sVAC MacLaren
p830
I16871
sVRaza Hasan
p831
I343548
sVCR Rangachari
p832
I33088
sVS Morris
p833
I6647
sVL Balaji
p834
I26829
sVShoaib Akhtar
p835
I42655
sVGJ Cosier
p836
I4629
sVA Jadeja
p837
I29632
sVBL Cairns
p838
I36595
sVRLB Rambukwella
p839
I394871
sVNaved Ashraf
p840
I42064
sVS Wazir Ali
p841
I35940
sVJR Hopes
p842
I5702
sVAE Stoddart
p843
I20381
sVE Chigumbura
p844
I55343
sVR Singh
p845
I34060
sVDW Fleming
p846
I5239
sVGM Griffin
p847
I45247
sVGN de Silva
p848
I48457
sVIS Madray
p849
I52416
sVKHRK Fernando
p850
I48967
sVLEG Ames
p851
I8532
sVSF Graf
p852
I5420
sVRG Holland
p853
I5692
sVL Hutton
p854
I14334
sVA Mishra
p855
I31107
sVPH Carlson
p856
I4534
sVWJ Edwards
p857
I5126
sVAD Ogilvie
p858
I6996
sVGRA Langley
p859
I6258
sVShahid Nazir
p860
I42646
sVTV Hohns
p861
I5688
sVTWJ Goddard
p862
I13386
sVW Farrimond
p863
I12814
sVYasir Ali
p864
I43670
sVE Evans
p865
I5143
sVAJ Turner
p866
I500268
sVJP Duminy
p867
I44932
sVER Dexter
p868
I11886
sVNM Parker
p869
I38114
sVGA Cope
p870
I10809
sVAzam Khan
p871
I39020
sVG Brown
p872
I9259
sVAG Puttick
p873
I46797
sVSV Samson
p874
I425943
sVZulqarnain Haider
p875
I43860
sVSM Pollock
p876
I46774
sVGRJ Matthews
p877
I6525
sVPD Collingwood
p878
I10772
sVDT Lindsay
p879
I45990
sVML Page
p880
I38109
sVIM Sinclair
p881
I38391
sVBazid Khan
p882
I39956
sVWashington Sundar
p883
I719715
sVIntikhab Alam
p884
I40567
sVKC Sangakkara
p885
I50710
sVEWT Tindill
p886
I38614
sVRJ Sidebottom
p887
I20187
sVAC Gilchrist
p888
I5390
sVM Morkel
p889
I46538
sVIsrar Ali
p890
I40579
sVKS Williamson
p891
I277906
sVCJ Chibhabha
p892
I55354
sVAF Giles
p893
I13368
sVJM How
p894
I37265
sVD Wiese
p895
I221140
sVVizianagram
p896
I35930
sVD Hettiarachchi
p897
I49128
sVWB Phillips
p898
I7115
sVJK Irani
p899
I29543
sVIL Mendonca
p900
I52433
sVJM Muirhead
p901
I533043
sVE Peate
p902
I18487
sVKMC Bandara
p903
I362079
sVH Trumble
p904
I7977
sVMJ Haslam
p905
I37241
sVSJ Roberts
p906
I38255
sVSS Dighe
p907
I28090
sVAG Fairfax
p908
I5209
sVHS Kanitkar
p909
I30019
sVJai P Yadav
p910
I36054
sVIP Butchart
p911
I55280
sVA Chopra
p912
I27639
sVSR Gillespie
p913
I37102
sVAsad Ali
p914
I222728
sVWG Grace
p915
I13424
sVEC Joyce
p916
I24249
sVPK Wijetunge
p917
I50856
sVHJ Rhodes
p918
I19372
sVF Hearne
p919
I45423
sVRO Hinds
p920
I52055
sVWH Brann
p921
I44116
sVImran Khan (1)
p922
I783423
sVSS Karim
p923
I30042
sVCA Snedden
p924
I38397
sVTP Kamungozi
p925
I235521
sVCJ Barnett
p926
I9000
sVDL Amiss
p927
I8535
sVTR McKibbin
p928
I6579
sVJG Wright
p929
I38757
sVKA Pollard
p930
I230559
sVJB Mortimore
p931
I17111
sVJV Paranjpe
p932
I32192
sVRB Kenny
p933
I30066
sVBJ Arnel
p934
I36194
sVKK Jennings
p935
I440780
sVNawab of Pataudi snr
p936
I32224
sVAH Gray
p937
I51898
sVUG Dowe
p938
I51653
sVUN Kulkarni
p939
I30154
sVK Shuttleworth
p940
I20182
sVJW Guy
p941
I37107
sVGC Smith
p942
I47270
sVKJ Arnott
p943
I55235
sVC Blythe
p944
I9134
sVAta-ur-Rehman
p945
I39015
sVWA Hadlee
p946
I37226
sVPL Winslow
p947
I47912
sVRK Tyldesley
p948
I21637
sVT Muzarabani
p949
I232444
sVMEK Hussey
p950
I5939
sVAS Wassan
p951
I35939
sVDM Smith
p952
I20235
sVKhurram Manzoor
p953
I41140
sVRJ Harris
p954
I5779
sVDJ Bravo
p955
I51439
sVKhan Mohammad
p956
I41043
sVG Sharma
p957
I33952
sVAG Cremer
p958
I55346
sVDJ Willey
p959
I308251
sVVB van Jaarsveld
p960
I47846
sVML Lewis
p961
I6291
sVPS Vaidya
p962
I35627
sVJD Wildermuth
p963
I570854
sVSFAF Bacchus
p964
I51208
sVAM Fernando
p965
I786925
sVJMM Commaille
p966
I44454
sVMLC Foster
p967
I51793
sVBS Chandrasekhar
p968
I27591
sVSNJ O'Keefe
p969
I7069
sVJG Bracewell
p970
I36306
sVD Tallon
p971
I7913
sVVY Richardson
p972
I7346
sVJSE Price
p973
I18616
sVYounis Khan
p974
I43652
sVB Geeves
p975
I5472
sVMD Craig
p976
I497543
sVRKJ Dawson
p977
I11848
sVAMJG Amerasinghe
p978
I48118
sVCD Barnwell
p979
I330408
sVAJ Redmond
p980
I38264
sVJJ van der Wath
p981
I47693
sVBA Bolton
p982
I36302
sVEW Freeman
p983
I5258
sVHI Ebeling
p984
I5119
sVMP Donnelly
p985
I36832
sVRS Gavaskar
p986
I28792
sVRB Minnett
p987
I6622
sVJK Moss
p988
I6654
sVMR Rege
p989
I33164
sVSM Gavaskar
p990
I28794
sVB Fernando
p991
I629080
sVLS Pascoe
p992
I7083
sVMJR Rindel
p993
I46987
sVMS Dhoni
p994
I28081
sVHarvinder Singh
p995
I29280
sVRR Pant
p996
I931581
sVCA Lynn
p997
I326637
sVJN Mohammed
p998
I230549
sVDS Tomlinson
p999
I47548
sVA Shahzad
p1000
I21431
sVSaad Nasim
p1001
I317248
sVAK Sharma
p1002
I33943
sVMohammad Asif
p1003
I41411
sVRH Spooner
p1004
I20316
sVPN Kirsten
p1005
I45815
sVKV Sharma
p1006
I30288
sVMohammad Ramzan
p1007
I41295
sVAH Jones
p1008
I37491
sVJM Bird
p1009
I215152
sVPA Gibb
p1010
I13357
sVJP Taylor
p1011
I21484
sVWW Davis
p1012
I51643
sVWW Wade
p1013
I47855
sVM Jahangir Khan
p1014
I29654
sVMG Melle
p1015
I46219
sVAK Patel
p1016
I32226
sVAJ Penn
p1017
I38120
sVAamer Nazir
p1018
I38966
sVCG Macartney
p1019
I6434
sVPS McDonnell
p1020
I6557
sVDT Tiripano
p1021
I392945
sVHR Bryan
p1022
I51235
sVPR Downton
p1023
I11931
sVLA Butterfield
p1024
I36318
sVAC Bedade
p1025
I26872
sVHR Lance
p1026
I45960
sVDT Hondo
p1027
I55509
sVGB Stevenson
p1028
I20363
sVMA Taylor
p1029
I7924
sVAzeem Hafeez
p1030
I39021
sVFJ Titmus
p1031
I21548
sVRK Nunes
p1032
I52635
sVManzoor Elahi
p1033
I41262
sVSF Barnes
p1034
I8996
sVSR Patil
p1035
I32284
sVHH Streak
p1036
I55761
sVJM Ghorpade
p1037
I28814
sVSE Bond
p1038
I36326
sVRW Marsh
p1039
I6502
sVGP Howarth
p1040
I37254
sVGI Allott
p1041
I36179
sVAW Palm
p1042
I46725
sVJM Vince
p1043
I296597
sVGR Stead
p1044
I38403
sVSF Mire
p1045
I290462
sVGB Brent
p1046
I55269
sVAO Malhotra
p1047
I30912
sVDB Vengsarkar
p1048
I35654
sVPM Siddle
p1049
I7898
sVSJ Pegler
p1050
I46745
sVMD Gunathilaka
p1051
I345821
sVAsif Ali
p1052
I494230
sVLR Pierre
p1053
I52679
sVRS Mahanama
p1054
I49626
sVHM Taberer
p1055
I47516
sVHAPW Jayawardene
p1056
I49236
sVMudassar Nazar
p1057
I41308
sVAD Mascarenhas
p1058
I16932
sVLK Germon
p1059
I37101
sVPA McAlister
p1060
I6536
sVCA McWatt
p1061
I52432
sVGB Legge
p1062
I16253
sVRD Brown
p1063
I55275
sVEH Mattis
p1064
I52427
sVM Nissar
p1065
I31791
sVMVT Fernando
p1066
I465783
sVDR Tuffey
p1067
I38620
sVNV Ojha
p1068
I32102
sVFY Fazal
p1069
I28671
sVDEJ Ironside
p1070
I45694
sVNMK Smith
p1071
I20259
sVR McLaren
p1072
I46393
sVPA Wallace
p1073
I53214
sVNL McCullum
p1074
I37749
sVGH Bodi
p1075
I44089
sVRES Wyatt
p1076
I22545
sVSMH Kirmani
p1077
I30116
sVS Viswanath
p1078
I35713
sVKH Weekes
p1079
I53220
sVCS Baugh
p1080
I51446
sVRT Latham
p1081
I37602
sVSO Dowrich
p1082
I431905
sVSS Iyer
p1083
I642519
sVM Ntini
p1084
I46592
sVSJE Loxton
p1085
I6323
sVFaisal Athar
p1086
I40113
sVRahat Ali
p1087
I323244
sVJB Robertson
p1088
I46991
sVDA Sharpe
p1089
I42673
sVJJ Whitaker
p1090
I22392
sVIC Davis
p1091
I4916
sVBA Murphy
p1092
I55610
sVD Ganesh
p1093
I28774
sVTS Nethula
p1094
I377639
sVEA Moseley
p1095
I52437
sVNA Mallender
p1096
I16886
sVWajahatullah Wasti
p1097
I43539
sVBP Gupte
p1098
I28878
sVAM Salvi
p1099
I34264
sVSP O'Donnell
p1100
I6995
sVAR Bhat
p1101
I26928
sVMV Boucher
p1102
I44111
sVMW Alleyne
p1103
I8520
sVRSA Jayasekera
p1104
I49206
sVRIC Holder
p1105
I52059
sVWW Hall
p1106
I52043
sVA Mithun
p1107
I310958
sVAnwar Khan
p1108
I39002
sVMiran Bakhsh
p1109
I41280
sVRS Kaluwitharana
p1110
I49361
sVAR Dell
p1111
I4937
sVJM Blackham
p1112
I4153
sVTL Best
p1113
I51436
sVR Vinay Kumar
p1114
I35731
sVG Gambhir
p1115
I28763
sVMJ Bennett
p1116
I4127
sVWM Anderson
p1117
I36181
sVJW Zulch
p1118
I48109
sVQ McMillan
p1119
I46216
sVRG Petrie
p1120
I38124
sVWH Scotton
p1121
I20076
sVDVP Wright
p1122
I22536
sVAli Hussain Rizvi
p1123
I38993
sVCD Gopinath
p1124
I28855
sVR Dumbrill
p1125
I44730
sVD Bishoo
p1126
I341593
sVSM Ervine
p1127
I55414
sVTA Boult
p1128
I277912
sVD Olivier
p1129
I486679
sVDJ Brown
p1130
I9252
sVWH Ashley
p1131
I43938
sVMohammad Akram
p1132
I41282
sVImam-ul-Haq
p1133
I568276
sVHGO Owen-Smith
p1134
I46691
sVS Chanderpaul
p1135
I51469
sVIjaz Ahmed jnr
p1136
I40553
sVSA Durani
p1137
I28118
sVSL Watkin
p1138
I22333
sVFJ Cameron
p1139
I36599
sVWA Johnston
p1140
I6041
sVJT Smuts
p1141
I280490
sVFaisal Iqbal
p1142
I40088
sVVI Smith
p1143
I47213
sVAT Rayudu
p1144
I33141
sVRK Kleinveldt
p1145
I45949
sVB Yograj Singh
p1146
I36078
sVKC Wessels
p1147
I47884
sVH Ironmonger
p1148
I5977
sVSG Davies
p1149
I55360
sVHasan Jamil
p1150
I40376
sVVC Drakes
p1151
I51655
sVTM Findlay
p1152
I51792
sVS Somasunder
p1153
I34086
sVSaqlain Mushtaq
p1154
I42628
sVL Vincent
p1155
I38714
sVT Mupariwa
p1156
I55652
sVRA Austin
p1157
I51113
sVBB Sran
p1158
I537126
sVNaumanullah
p1159
I42059
sVPGZ Harris
p1160
I37233
sVRS Kalpage
p1161
I49356
sVWahab Riaz
p1162
I43590
sVSohaib Maqsood
p1163
I43266
sVJ Srinath
p1164
I34105
sVERH Fuller
p1165
I45080
sVCA Roach
p1166
I52815
sVAB Barath
p1167
I274926
sVJDP Oram
p1168
I38062
sVHMRKB Herath
p1169
I49178
sVGR Dickinson
p1170
I36829
sVSW Sohoni
p1171
I34081
sVAM Blignaut
p1172
I55259
sVFMM Worrell
p1173
I53238
sVM Yachad
p1174
I48102
sVAN Petersen
p1175
I46934
sVAJ Woodcock
p1176
I8244
sVTalat Ali
p1177
I43273
sVManinder Singh
p1178
I30923
sVB Stanlake
p1179
I533042
sVGHT Simpson-Hayward
p1180
I20197
sVEJ Smith
p1181
I20240
sVDG Cork
p1182
I10816
sVT Bosch
p1183
I44097
sVEL Dalton
p1184
I44673
sVG Dymock
p1185
I4999
sVMA Small
p1186
I52939
sVLS Darling
p1187
I4899
sVHT Dani
p1188
I27988
sVFakhar Zaman
p1189
I512191
sVJ Charles
p1190
I333066
sVSRD Wettimuny
p1191
I50840
sVJA Burns
p1192
I326632
sVJ Trim
p1193
I53131
sVPGH Fender
p1194
I12828
sVBP Nash
p1195
I6950
sVG Thomas
p1196
I7934
sVRI Harford
p1197
I37230
sVImran Khan
p1198
I40560
sVSarfraz Ahmed
p1199
I227760
sVF Nicholson
p1200
I46578
sVGWA Chubb
p1201
I44441
sVAP Freeman
p1202
I12918
sVCR Woakes
p1203
I247235
sVMA Holding
p1204
I52063
sVShakeel Ahmed snr
p1205
I42650
sVTA Copeland
p1206
I281974
sVShafqat Rana
p1207
I42637
sVNO Norton
p1208
I46586
sVSJ Palframan
p1209
I46724
sVFH Edwards
p1210
I51782
sVW Attewell
p1211
I8588
sVIVA Richards
p1212
I52812
sVR Dhawan
p1213
I290727
sVAF Milne
p1214
I450860
sVB Wood
p1215
I22498
sVIE O'Brien
p1216
I38108
sVJW Hitch
p1217
I14222
sVDF Whatmore
p1218
I8210
sVPA Hitchcock
p1219
I37263
sVJ Ryder
p1220
I7416
sVAbdul Qadir
p1221
I38973
sVWE Merritt
p1222
I37716
sVAsim Kamal
p1223
I39041
sVMS Panesar
p1224
I18655
sVJE Cheetham
p1225
I44435
sVJR Reid
p1226
I38248
sVJT Ward
p1227
I38741
sVFarrukh Zaman
p1228
I40090
sVVWC Jupp
p1229
I15572
sVIA Nicolson
p1230
I55669
sVGA Lohmann
p1231
I16337
sVEM Meuli
p1232
I37717
sVW Gunn
p1233
I13492
sVMP Bicknell
p1234
I9089
sVGG Macaulay
p1235
I16857
sVDN Patel
p1236
I38118
sVCM Wells
p1237
I22363
sVGD Campbell
p1238
I4523
sVEFS Tylecote
p1239
I21639
sVR Peel
p1240
I18489
sVV Dahiya
p1241
I27978
sVAJ Pithey
p1242
I46760
sVJJ Roy
p1243
I298438
sVDO Christian
p1244
I51634
sVLJ Johnson
p1245
I6031
sVBJ Watling
p1246
I38924
sVYajurvindra Singh
p1247
I36072
sVKamran Akmal
p1248
I41028
sVBA Young
p1249
I38929
sVGJ Gilmour
p1250
I5396
sVJA Small
p1251
I52938
sVIBA Allen
p1252
I51105
sVArshad Khan
p1253
I39005
sVHI Young
p1254
I23532
sVA Ranatunga
p1255
I50244
sVSaleem Elahi
p1256
I42620
sVUmar Gul
p1257
I43524
sVSMJ Woods
p1258
I22492
sVS Kaul
p1259
I326017
sVDS Weerakkody
p1260
I499592
sVMJ Horne
p1261
I37250
sVWIA Fernando
p1262
I784369
sVSir RJ Hadlee
p1263
I37224
sVC Munro
p1264
I232359
sVW Bruce
p1265
I4228
sVS Guha
p1266
I28864
sVCJE Smith
p1267
I47204
sVH Klaasen
p1268
I436757
sVGS Trimble
p1269
I7970
sVDL Bairstow
p1270
I8954
sVJE Taylor
p1271
I53191
sVN Reid
p1272
I46968
sVGAHM Parkar
p1273
I32201
sVMDJ Walker
p1274
I38760
sVDJ Vilas
p1275
I262456
sVSA Thomson
p1276
I38613
sVMHW Papps
p1277
I38111
sVGC Dyer
p1278
I4996
sVELG Hoad
p1279
I52058
sVZakir Khan
p1280
I43703
sVPJ Franks
p1281
I12906
sVAHC Cooper
p1282
I44468
sVMKDI Amerasinghe
p1283
I48139
sVShahid Saeed
p1284
I42647
sVJJ Martin
p1285
I30954
sVVVS Laxman
p1286
I30750
sVPJ Petherick
p1287
I38122
sVHH Dippenaar
p1288
I44708
sVAsif Masood
p1289
I39012
sVGP Swann
p1290
I20431
sVTB de Bruyn
p1291
I486672
sVW Barnes
p1292
I8998
sVDA Stirling
p1293
I38404
sVRM Edwards
p1294
I51740
sVShoaib Malik
p1295
I42657
sVMR Bynoe
p1296
I51242
sVKMA Paul
p1297
I677081
sVMJ Swepson
p1298
I590326
sVMP Vaughan
p1299
I22182
sVJF Reid
p1300
I38246
sVWD Parnell
p1301
I265564
sVJH du Preez
p1302
I44738
sVRF Surti
p1303
I34174
sVR Dravid
p1304
I28114
sVMJ Smith
p1305
I20257
sVCK Langeveldt
p1306
I45963
sVBN Jarman
p1307
I6013
sVPLS Gamage
p1308
I268845
sVJWM Dalrymple
p1309
I11974
sVRK Chauhan
p1310
I27622
sVMA Vermeulen
p1311
I55822
sVFB Smith
p1312
I38394
sVJC Alabaster
p1313
I36175
sVNR Chowdhury
p1314
I27659
sVLJ Koen
p1315
I45828
sVRA Legall
p1316
I52341
sVWB Rankin
p1317
I24599
sVImtiaz Ahmed
p1318
I40565
sVEC Rainsford
p1319
I55740
sVQ de Kock
p1320
I379143
sVCN McCarthy
p1321
I46196
sVCPH Ramanayake
p1322
I50240
sVGul Mohammad
p1323
I40329
sVShoaib Khan jnr
p1324
I42889
sVSD Anurasiri
p1325
I48120
sVTG McIntosh
p1326
I37706
sVPR Adams
p1327
I43919
sVG Pullar
p1328
I18640
sVLR Williams
p1329
I53233
sVNLK Ratnayake
p1330
I50248
sVJAH Marshall
p1331
I37698
sVGL Weir
p1332
I38747
sVNauman Anwar
p1333
I788879
sVGD Watson
p1334
I8176
sVF Kuys
p1335
I45841
sVGR Hazlitt
p1336
I5622
sVJH Board
p1337
I9136
sVBA Reid
p1338
I7319
sVAP Sheahan
p1339
I7597
sVOR Dunell
p1340
I44732
sVJE Pothecary
p1341
I46781
sVMandeep Singh
p1342
I398506
sVA Coningham
p1343
I4611
sVJJ Kotze
p1344
I45833
sVARM Opatha
p1345
I49849
sVN Puna
p1346
I38134
sVH Moses
p1347
I6652
sVRT Stanyforth
p1348
I20338
sVCE Floquet
p1349
I45057
sVAD Brown
p1350
I9246
sVRJ Peterson
p1351
I46750
sVBM Duckett
p1352
I521637
sVJW Sharpe
p1353
I20124
sVAK Zesers
p1354
I8466
sVJW Wilson
p1355
I38751
sVJ Lewis
p1356
I16281
sVAS Kennedy
p1357
I15858
sVKBJ Azad
p1358
I26325
sVMA Aponso
p1359
I429748
sVKH MacLeay
p1360
I6453
sVLG Rowe
p1361
I52823
sVTG Hogan
p1362
I5679
sVBS Sandhu
p1363
I33816
sVSohail Fazal
p1364
I42664
sVAG Prince
p1365
I46788
sVRE Foster
p1366
I12881
sVPA Nixon
p1367
I18023
sVGSNFG Jayasuriya
p1368
I422965
sVDR Jardine
p1369
I15481
sVMohammad Amir
p1370
I290948
sVFC Hayes
p1371
I14106
sVNM Lyon
p1372
I272279
sVMohammad Khalil
p1373
I41452
sVJP Faulkner
p1374
I270484
sVRM Hira
p1375
I232356
sVM Klinger
p1376
I6161
sVDR Hadlee
p1377
I37222
sVA Flower
p1378
I55427
sVJD Unadkat
p1379
I390484
sVSJ McCabe
p1380
I6540
sVTB Mitchell
p1381
I17050
sVTW Garrett
p1382
I5364
sVWE Midwinter
p1383
I6605
sVAA Donald
p1384
I44716
sVSD Heazlett
p1385
I826679
sVRD Jackman
p1386
I15461
sVJaved Burki
p1387
I40877
sVMC Bascombe
p1388
I252893
sVMB Poore
p1389
I38130
sVJS Patel
p1390
I38141
sVFDM Karunaratne
p1391
I227772
sVGR Sunderam
p1392
I34154
sVShahid Mahboob
p1393
I42644
sVSM Katich
p1394
I6128
sVYS Chahal
p1395
I430246
sVKR Rutherford
p1396
I38258
sVGW Humpage
p1397
I14302
sVS Ramesh
p1398
I33066
sVGJP Kruger
p1399
I45888
sVHH Pandya
p1400
I625371
sVRB Richardson
p1401
I52810
sVPJR Steyn
p1402
I47242
sVCEL Ambrose
p1403
I51107
sVNV Radford
p1404
I19314
sVTR Veivers
p1405
I8103
sVC Zhuwao
p1406
I235532
sVCT Tremlett
p1407
I21650
sVRE Redmond
p1408
I38244
sVAC Agar
p1409
I505120
sVIrfan Fazil
p1410
I40577
sVKuldeep Yadav
p1411
I559235
sVTauseef Ahmed
p1412
I43277
sVGD McKenzie
p1413
I6576
sVGA Greenidge
p1414
I51902
sVMasood Iqbal
p1415
I41275
sVGK Glover
p1416
I45232
sVG Cripps
p1417
I44480
sVLN Constantine
p1418
I51483
sVBR Dunk
p1419
I388678
sVL Klusener
p1420
I45821
sVD Dasgupta
p1421
I28146
sVLE Nagel
p1422
I6911
sVBC Lara
p1423
I52337
sVRL Chase
p1424
I391832
sVERNS Fernando
p1425
I48803
sVMJ Gopalan
p1426
I28850
sVVB Ranjane
p1427
I33092
sVDT Christian
p1428
I4864
sVCG Borde
p1429
I26962
sVCJ Jordan
p1430
I288992
sVALF de Mel
p1431
I48447
sVW Storer
p1432
I20385
sVBR Dorey
p1433
I5112
sVLV Garrick
p1434
I51877
sVKhalid Ibadulla
p1435
I41039
sVADG Roberts
p1436
I38253
sVNJ Contractor
p1437
I27667
sVMD Bates
p1438
I36590
sVEE Hemmings
p1439
I14152
sVNT Pascal
p1440
I230552
sVN Pooran
p1441
I604302
sVGM Parker
p1442
I46728
sVB Casson
p1443
I4825
sVNB Mahwire
p1444
I55628
sVNI Thomson
p1445
I21533
sVML Jaisimha
p1446
I29663
sVSA Ankola
p1447
I26257
sVAE Trott
p1448
I21593
sVPJ Sharpe
p1449
I20126
sVD Brown
p1450
I51251
sVBH Pairaudeau
p1451
I52669
sVSH Curnow
p1452
I44491
sVAFG Griffith
p1453
I51905
sVRJ Kennedy
p1454
I37530
sVD Gough
p1455
I13411
sVKOK Williams
p1456
I450075
sVDRE Joseph
p1457
I52204
sVHasan Ali
p1458
I681305
sVRC Haynes
p1459
I52048
sVBC Rose
p1460
I19478
sVGF Labrooy
p1461
I49552
sVRDB Croft
p1462
I10881
sVMohammad Farooq
p1463
I41284
sVN Gordon
p1464
I45239
sVA Zampa
p1465
I379504
sVA Ratra
p1466
I33127
sVC Pringle
p1467
I38133
sVRS Grant
p1468
I51897
sVPJL Dujon
p1469
I51657
sVUmar Akmal
p1470
I317273
sVAME Roberts
p1471
I52817
sVRL Dias
p1472
I48470
sVME Waugh
p1473
I8189
sVRC Blunt
p1474
I36301
sVWazir Mohammad
p1475
I43557
sVAM Moir
p1476
I37724
sVNaeem Ashraf
p1477
I42051
sVAli Naqvi
p1478
I38994
sVSM Harwood
p1479
I5605
sVKJ Wright
p1480
I8264
sVVM Tancred
p1481
I47523
sVPJ Cummins
p1482
I489889
sVVL Mehra
p1483
I30974
sVAJ Watkins
p1484
I22329
sVCJ Richards
p1485
I19394
sVAC Dale
p1486
I4890
sVSJ Snooke
p1487
I47217
sVGD Porter
p1488
I7135
sVAGR Loudon
p1489
I16388
sVVS Solanki
p1490
I20286
sVGA Faulkner
p1491
I45039
sVMK Pandey
p1492
I290630
sVT Bavuma
p1493
I372116
sVWE Hollies
p1494
I14240
sVRG de Alwis
p1495
I48446
sVV Razdan
p1496
I33151
sVWH Copson
p1497
I10812
sVTK Canning
p1498
I36632
sVWH Lockwood
p1499
I16328
sVEH Hendren
p1500
I14158
sVAB Agarkar
p1501
I26184
sVKR Miller
p1502
I6612
sVA Bacher
p1503
I44026
sVSK Raina
p1504
I33335
sVGE Bond
p1505
I44092
sVMoin Khan
p1506
I41306
sVMJ Hartigan
p1507
I5905
sVPM Such
p1508
I20404
sVB Yardley
p1509
I8449
sVMohammad Abbas
p1510
I389666
sVAJ Hollioake
p1511
I14244
sVJG Binks
p1512
I9095
sVRC Fredericks
p1513
I51797
sVJA Morkel
p1514
I46248
sVLC Mayne
p1515
I6531
sVImtiaz Ali
p1516
I51102
sVR Beaumont
p1517
I44059
sVDE Bernard
p1518
I51300
sVES Newson
p1519
I46577
sVLE Plunkett
p1520
I19264
sVSD Snooke
p1521
I47216
sVVT Trumper
p1522
I7980
sVIT Botham
p1523
I9163
sVAR Lewis
p1524
I16271
sVRJ Kirtley
p1525
I15901
sVBJ Sealey
p1526
I52926
sVKK Tarapore
p1527
I35313
sVMohammad Hussain
p1528
I41285
sVCK Kapugedera
p1529
I209457
sVAK Kitchen
p1530
I384355
sVSC Williams
p1531
I55870
sVGA Briant
p1532
I55271
sVBJ Bess
p1533
I329087
sVML Udawatte
p1534
I50802
sVFarooq Hamid
p1535
I40089
sVRP Snell
p1536
I47215
sVSR Patel
p1537
I18632
sVGAR Lock
p1538
I16331
sVRE Levi
p1539
I46148
sVFM Engineer
p1540
I28624
sVSKL de Silva
p1541
I48465
sVJ Hardstaff snr
p1542
I14042
sVD Mongia
p1543
I31034
sVSK Warne
p1544
I8166
sVD Taylor
p1545
I47533
sVBC Hollioake
p1546
I14246
sVTJ Franklin
p1547
I37002
sVSA Muller
p1548
I6665
sVJM Parker
p1549
I38113
sVMohammad Talha
p1550
I227771
sVKW Richardson
p1551
I272262
sVJD Love
p1552
I16352
sVGA Rowe
p1553
I47006
sVCWJ Athey
p1554
I8581
sVRA Reifer
p1555
I450101
sVD Elgar
p1556
I230852
sVAbdur Rehman
p1557
I39091
sVNS Sidhu
p1558
I34028
sVMohammad Munaf
p1559
I41291
sVKD Ghavri
p1560
I28813
sVJM Noreiga
p1561
I52634
sVKO Meth
p1562
I232443
sVDM Benkenstein
p1563
I44070
sVAbdul Kadir
p1564
I38971
sVJ Theron
p1565
I223642
sVJA Dunning
p1566
I36842
sVOD Gibson
p1567
I51885
sVAM Nayar
p1568
I32091
sVA Shrewsbury snr
p1569
I20179
sVJ Angel
p1570
I3975
sVWH Cooper
p1571
I4626
sVM Mosehle
p1572
I327832
sVAW Seccull
p1573
I47173
sVGA Headley
p1574
I52050
sVRA Jones
p1575
I37494
sVJH Kallis
p1576
I45789
sVN Pradeep
p1577
I324358
sVDE Bollinger
p1578
I4508
sVKWR Fletcher
p1579
I12854
sVMS Gony
p1580
I317293
sVAV Kale
p1581
I29998
sVSP Narine
p1582
I230558
sVIJL Trott
p1583
I47623
sVKJ Wadsworth
p1584
I38735
sVUC Hathurusingha
p1585
I49125
sVImran Tahir
p1586
I40618
sVGB Hole
p1587
I5690
sVSB O'Connor
p1588
I38060
sVHammad Azam
p1589
I384518
sVCE McLeod
p1590
I6584
sVAR Whittall
p1591
I55846
sVRV Divecha
p1592
I28095
sVST Finn
p1593
I210283
sVLC Braund
p1594
I9203
sVNadeem Khan
p1595
I42047
sVRPW Guneratne
p1596
I49003
sVPE Richardson
p1597
I19386
sVLM Jongwe
p1598
I541224
sVJR Gunn
p1599
I13491
sVACI Lock
p1600
I55560
sVIM Barrow
p1601
I51303
sVRK Oxenham
p1602
I7023
sVJN Gillespie
p1603
I5392
sVND McKenzie
p1604
I46208
sVJED Sealy
p1605
I52927
sVRW Taylor
p1606
I21494
sVHF Gurney
p1607
I244639
sVTE Bailey
p1608
I8944
sVPA Horne
p1609
I37251
sVSaeed Anwar
p1610
I42605
sVML Su'a
p1611
I38409
sVLN Roche
p1612
I596002
sVCT Bancroft
p1613
I501011
sVSamiullah Khan
p1614
I43235
sVGF Bissett
p1615
I44078
sVHF Wade
p1616
I47854
sVMAR Samarasekera
p1617
I50421
sVGAE Paine
p1618
I18396
sVZahid Fazal
p1619
I43697
sVCAK Walton
p1620
I315586
sVRA Jadeja
p1621
I234675
sVSaleem Pervez
p1622
I42624
sVID Austin
p1623
I8590
sVQasim Umar
p1624
I42362
sVGW Aldridge
p1625
I36187
sVJAK Cochran
p1626
I44450
sVGE Palmer
p1627
I7071
sVDK Gaekwad
p1628
I28755
sVRD Parkar
p1629
I32202
sVH Davids
p1630
I44752
sVPervez Sajjad
p1631
I42324
sVVH Stollmeyer
p1632
I52955
sVMaqsood Rana
p1633
I41272
sVDJ Hussey
p1634
I5766
sVDK Lillee
p1635
I6295
sVManzoor Akhtar
p1636
I41264
sVM Pushpakumara
p1637
I49868
sVAE Dick
p1638
I36830
sVCH Morris
p1639
I439952
sVC Burke
p1640
I36315
sVAamer Malik
p1641
I38965
sVPJ Forrest
p1642
I232285
sVMansoor Rana
p1643
I41261
sVST de Silva
p1644
I807469
sVDR Pringle
p1645
I18627
sVNE Bonner
p1646
I314650
sVMF Malone
p1647
I6474
sVSR Waugh
p1648
I8192
sVV Pollard
p1649
I38129
sVJN Crawford
p1650
I10866
sVKS Lokuarachchi
p1651
I49557
sVMC Carew
p1652
I51465
sVAtiq-uz-Zaman
p1653
I39019
sVMN Hart
p1654
I37237
sVHK Badani
p1655
I26802
sVAP Igglesden
p1656
I15380
sVLE Bosman
p1657
I44098
sVTWM Latham
p1658
I388802
sVJWA Taylor
p1659
I297635
sVDD Parsana
p1660
I32207
sVRM Harris
p1661
I37234
sVAH Omarshah
p1662
I55680
sVGN Edwards
p1663
I36952
sVNiaz Ahmed
p1664
I42069
sVRE van der Merwe
p1665
I47850
sVCD Cumming
p1666
I36627
sVZS Ansari
p1667
I349853
sVSC Meaker
p1668
I297634
sVSalahuddin
p1669
I42615
sVRJ McCurdy
p1670
I6549
sVHaroon Rasheed
p1671
I40375
sVCJ Nevin
p1672
I38009
sVJA Flavell
p1673
I12848
sVR Gilchrist
p1674
I51887
sVMDUS Jayasundera
p1675
I345822
sVA Sanford
p1676
I52957
sVTD Paine
p1677
I7252
sVAS Jaggernauth
p1678
I52277
sVHG Deane
p1679
I44685
sVSV Carlisle
p1680
I55307
sVSR Watson
p1681
I8180
sVGS Sobers
p1682
I52946
sVRizwan Ahmed
p1683
I42430
sVKE Rigg
p1684
I7356
sVDS Atkinson
p1685
I51134
sVKPJ Warnaweera
p1686
I50836
sVEA Martindale
p1687
I52424
sVBBM Gaskin
p1688
I51878
sVBilal Asif
p1689
I498875
sVRT Spooner
p1690
I20317
sVJG Heron
p1691
I55485
sVCB Fry
p1692
I12930
sVKabir Ali
p1693
I8476
sVAK Kuruppuarachchi
p1694
I49366
sVNadeem Abbasi
p1695
I42041
sVLS Rajput
p1696
I33034
sVJB Stollmeyer
p1697
I52953
sVNS Asgarali
p1698
I51111
sVYK Pathan
p1699
I32498
sVEA McDonald
p1700
I6555
sVCV Wight
p1701
I53224
sVAG Hurst
p1702
I5732
sVSG Barnes
p1703
I4098
sVHM Amla
p1704
I43906
sVVB John
p1705
I49213
sVB Arun
p1706
I26293
sVPJ Wiseman
p1707
I38753
sVCIJ Smith
p1708
I20231
sVPJ Ingram
p1709
I38952
sVI Meckiff
p1710
I6598
sVImran Nazir
p1711
I40563
sVWS Jayantha
p1712
I49347
sVFW Smith
p1713
I47206
sVJA Richardson
p1714
I774223
sVJunaid Zia
p1715
I40926
sVRL Hayes
p1716
I37245
sVGC White
p1717
I47887
sVInshan Ali
p1718
I51103
sVRA Gaunt
p1719
I5372
sVWV Rodriguez
p1720
I52820
sVH Strudwick
p1721
I20393
sVLP Jai
p1722
I29667
sVMKGCP Lakshitha
p1723
I49598
sVJM Kemp
p1724
I45797
sVM Baqa Jilani
p1725
I26860
sVIS Gallage
p1726
I48993
sVACB Langton
p1727
I46132
sVPA de Silva
p1728
I48462
sVWJ Edrich
p1729
I12492
sVN Gifford
p1730
I13365
sVSS Das
p1731
I28010
sVND Hirwani
p1732
I29299
sVMW Douglas
p1733
I36833
sVD Gamage
p1734
I49121
sVNAT Adcock
p1735
I43923
sVJames Lillywhite jnr
p1736
I16296
sVS Prasanna
p1737
I268740
sVSCJ Broad
p1738
I10617
sVPK Amre
p1739
I26238
sVDanish Kaneria
p1740
I40043
sVGN Yallop
p1741
I8448
sVBP Julian
p1742
I6056
sVDM Jones
p1743
I6044
sVRS Modi
p1744
I31021
sVT Richardson
p1745
I19389
sVJJ Bumrah
p1746
I625383
sVAL Hassett
p1747
I5607
sVRGCE Wijesuriya
p1748
I50855
sVBA Parchment
p1749
I52687
sVNM Hauritz
p1750
I5593
sVPNF Mansell
p1751
I46170
sVJA Jameson
p1752
I15468
sVA Kumble
p1753
I30176
sVL Ramji
p1754
I33068
sVRJ Blakey
p1755
I9121
sVJDC Goddard
p1756
I51889
sVMushtaq Ahmed
p1757
I41316
sVSharjeel Khan
p1758
I227762
sVRC Miller
p1759
I52537
sVRD King
p1760
I52294
sVRC Irani
p1761
I15403
sVW Voce
p1762
I22192
sVAgha Zahid
p1763
I38982
sVKJ Barnett
p1764
I9002
sVLO Fleetwood-Smith
p1765
I5327
sVS Kalavitigoda
p1766
I49354
sVAW Nourse
p1767
I46590
sVHSTL Hendry
p1768
I5637
sVAJW McIntyre
p1769
I16978
sVRB Desai
p1770
I28045
sVZahid Ahmed
p1771
I43696
sVPW Gunaratne
p1772
I49043
sVCL Walcott
p1773
I53211
sVRMH Binny
p1774
I26948
sVMK Mantri
p1775
I30950
sVJWHT Douglas
p1776
I11927
sVBA Davis
p1777
I51640
sVKhalid Latif
p1778
I41046
sVRK Illingworth
p1779
I15383
sVJ Newman
p1780
I38010
sVSD Udal
p1781
I22144
sVMA Wood
p1782
I351588
sVM Vijay
p1783
I237095
sVT Maruma
p1784
I235524
sVSaeed Ahmed
p1785
I42603
sVGA Gooch
p1786
I13399
sVAR MacGibbon
p1787
I37694
sVAJ Bell
p1788
I44065
sVG Wijekoon
p1789
I50345
sVAPE Knott
p1790
I15917
sVMH Mankad
p1791
I30939
sVAbdul Razzaq
p1792
I39836
sVJB Statham
p1793
I20341
sVIJ Harvey
p1794
I5597
sVST Gabriel
p1795
I446101
sVDJ Nash
p1796
I38008
sVShaheen Shah Afridi
p1797
I1072470
sVDM Bravo
p1798
I277472
sVSN McGregor
p1799
I37705
sVAH Kardar
p1800
I41030
sVGD Elliott
p1801
I44956
sVHD Rutherford
p1802
I331375
sVBN French
p1803
I12923
sVDD Ebrahim
p1804
I55416
sVTE Blain
p1805
I36297
sVBM Laird
p1806
I6250
sVD Ramdin
p1807
I52917
sVIS Sodhi
p1808
I559066
sVT Shamsi
p1809
I379145
sVRJ Inverarity
p1810
I5975
sVHaris Sohail
p1811
I318788
sVDAN McRae
p1812
I37713
sVGF Cresswell
p1813
I36617
sVRMS Eranga
p1814
I267414
sVPWH de Silva
p1815
I784379
sVJM Bairstow
p1816
I297433
sVMTG Elliott
p1817
I5130
sVDA Murray
p1818
I52439
sVAL Valentine
p1819
I53196
sVH Larwood
p1820
I16207
sVCE Cuffy
p1821
I51487
sVGE Vivian
p1822
I38711
sVA Mukund
p1823
I302582
sVTG Southee
p1824
I232364
sVBRM Taylor
p1825
I55814
sVCA Ingram
p1826
I45705
sVGA Bishop
p1827
I4151
sVTG McMahon
p1828
I37710
sVW Bates
p1829
I9037
sVS Ramadhin
p1830
I52804
sVJR Hodges
p1831
I5670
sVWK Hegg
p1832
I14149
sVCB Clarke
p1833
I51475
sVM Prabhakar
p1834
I32323
sVAJ Pycroft
p1835
I55700
sVCT Mumba
p1836
I672775
sVJunaid Khan
p1837
I259551
sVDR O'Sullivan
p1838
I38064
sVC de Grandhomme
p1839
I55395
sVLRD Mendis
p1840
I49629
sVWS Lees
p1841
I16242
sVDJ Terbrugge
p1842
I47541
sVGS Sandhu
p1843
I499660
sVK Rai Singh
p1844
I33009
sVJG Thomas
p1845
I21512
sVJ Blackwood
p1846
I431909
sVSHM Colah
p1847
I27665
sVAC Waller
p1848
I55840
sVG Geary
p1849
I13347
sVGC Small
p1850
I20217
sVYasir Hameed
p1851
I43656
sVMP Maynard
p1852
I16951
sVAJ Stewart
p1853
I20372
sVJ Moroney
p1854
I6639
sVC Kelleway
p1855
I6132
sVMD Moxon
p1856
I17119
sVJRMVB Sanjaya
p1857
I422092
sVRB Stewart
p1858
I47240
sVRA Smith
p1859
I20263
sVAfaq Hussain
p1860
I38975
sVLJ Coldwell
p1861
I10763
sVGB Studd
p1862
I20399
sVRR Lindwall
p1863
I6299
sVW Flowers
p1864
I12860
sVCW Smith
p1865
I52940
sVBA Barnett
p1866
I4100
sVRB Reid
p1867
I38249
sVNA Quinn
p1868
I46952
sVJ Mubarak
p1869
I49633
sVTBA May
p1870
I6534
sVEJG Morgan
p1871
I24598
sVVR Hogg
p1872
I55493
sVDP Conyngham
p1873
I44460
sVZulfiqar Ahmed
p1874
I43706
sVAJ Hall
p1875
I45396
sVAB Tancred
p1876
I47521
sVKSC de Silva
p1877
I48460
sVOC da Costa
p1878
I51637
sVDM Richards
p1879
I52833
sVBR Jurangpathy
p1880
I49214
sVCD Collymore
p1881
I51481
sVLJ Nash
p1882
I6915
sVGM Wood
p1883
I8251
sVIG Butler
p1884
I36331
sVMJ Mason
p1885
I37701
sVMP Stoinis
p1886
I325012
sVCC Lewis
p1887
I16274
sVCD Watson
p1888
I53218
sVRS Gabriel
p1889
I51870
sVSF Burke
p1890
I44143
sVCF Walters
p1891
I22283
sVTanvir Ahmed
p1892
I43307
sVWP Bradburn
p1893
I36309
sVAM Bacher
p1894
I44024
sVPS de Villiers
p1895
I44696
sVAftab Baloch
p1896
I38978
sVAnwar Hussain
p1897
I39001
sVSS Raul
p1898
I33129
sVPF Warner
p1899
I22311
sVMN van Wyk
p1900
I47711
sVWW Hinds
p1901
I52057
sVI Udana
p1902
I328026
sVNR Ferreira
p1903
I55421
sVAD Russell
p1904
I276298
sVEE Achong
p1905
I51098
sVCG Rackemann
p1906
I7302
sVSM Warnapura
p1907
I50874
sVGE Gomez
p1908
I51893
sVDG Brownlie
p1909
I4493
sVESM Kentish
p1910
I52288
sVS Badrinath
p1911
I26806
sVRJ Webb
p1912
I38746
sVAJ Doolan
p1913
I233648
sVMA Carberry
p1914
I10656
sVJHW Fingleton
p1915
I5229
sVTS Kamunhukamwe
p1916
I713811
sVA Flintoff
p1917
I12856
sVJE Mills
p1918
I37721
sVMW Sievers
p1919
I7614
sVAP Binns
p1920
I51223
sVJ Dyson
p1921
I5001
sVS Sreesanth
p1922
I34274
sVHB Taber
p1923
I7912
sVKD Mackay
p1924
I6445
sVI Khan
p1925
I45932
sVHHH Johnson
p1926
I52200
sVBE Congdon
p1927
I36611
sVRafatullah Mohmand
p1928
I42439
sVXC Balaskas
p1929
I44040
sVRG Pollock
p1930
I46772
sVBF Hastings
p1931
I37243
sVFG Mann
p1932
I16891
sVS Chattergoon
p1933
I51492
sVNO Perry
p1934
I52675
sVR Ngarava
p1935
I806241
sVM Ngam
p1936
I46599
sVHW Chapman
p1937
I44430
sVW Jaffer
p1938
I29646
sVDJ McGlew
p1939
I46203
sVNR Mongia
p1940
I31036
sVKCB Jeremy
p1941
I52210
sVIJ Gould
p1942
I13414
sVD Paterson
p1943
I327947
sVMansoor Amjad
p1944
I41963
sVJD Siddons
p1945
I7612
sVWE Russell
p1946
I19503
sVFCM Alexander
p1947
I51101
sVDM Vonhagt
p1948
I50807
sVSikandar Raza
p1949
I299572
sVD Wilson
p1950
I22469
sVSN Banerjee
p1951
I26851
sVSA Banerjee
p1952
I26849
sVIDR Bradshaw
p1953
I51246
sVGN Francis
p1954
I51794
sVRV Uthappa
p1955
I35582
sVMD Marshall
p1956
I52419
sVCC Passailaigue
p1957
I52799
sVA Bhandari
p1958
I26896
sVTA Blundell
p1959
I440516
sVSH Cook
p1960
I4619
sVCJL Rogers
p1961
I7388
sVP Willey
p1962
I22442
sVMN Waller
p1963
I55872
sVG Noblet
p1964
I6933
sVJN Shepherd
p1965
I52929
sVJT Ikin
p1966
I15381
sVJT Willoughby
p1967
I47904
sVSMS Kaluperuma
p1968
I49359
sVJH Sinclair
p1969
I47195
sVGC Viljoen
p1970
I375126
sVDW Randall
p1971
I19327
sVSV Bahutule
p1972
I26815
sVTR Ambrose
p1973
I8845
sVPW Sherwell
p1974
I47186
sVDPMD Jayawardene
p1975
I49289
sVTCB Fernando
p1976
I48844
sVSandeep Sharma
p1977
I438362
sVR Murray
p1978
I696139
sVLL Tsotsobe
p1979
I47666
sVBB Chari
p1980
I427178
sVRN Harvey
p1981
I5603
sVAamer Hanif
p1982
I38964
sVTE Srinivasan
p1983
I34109
sVRR Emrit
p1984
I51784
sVWM Wallace
p1985
I38738
sVCB Llewellyn
p1986
I45996
sVNaeem Ahmed
p1987
I42071
sVH Verity
p1988
I22185
sVMH Denness
p1989
I11870
sVKDK Vithanage
p1990
I342616
sVSPD Smith
p1991
I267192
sVIR Bell
p1992
I9062
sVCG Greenidge
p1993
I51901
sVDB Rundle
p1994
I47010
sVPV Mpitsang
p1995
I46255
sVJM Wiener
p1996
I8224
sVGR Dilley
p1997
I11893
sVRO Hurley
p1998
I52076
sVTD Astle
p1999
I213674
sVJEC Franklin
p2000
I37004
sVLJ Wright
p2001
I23460
sVRJ Shastri
p2002
I33975
sVCK Nayudu
p2003
I31811
sVDJ Meintjes
p2004
I46217
sVDB Pithey
p2005
I46761
sVTaslim Arif
p2006
I43275
sVRB Kerr
p2007
I6145
sVJA Hayes
p2008
I37244
sVWasim Bari
p2009
I43549
sVPL Harris
p2010
I45568
sVFM Misson
p2011
I6625
sVSurendranath
p2012
I34814
sVRC Motz
p2013
I37733
sVRGD Willis
p2014
I22462
sVJEF Beck
p2015
I36291
sVEhsan Adil
p2016
I547092
sVWH Ponsford
p2017
I7131
sVAdnan Akmal
p2018
I39038
sVAJ Richardson
p2019
I7334
sVMohammed Shami
p2020
I481896
sVTW Jarvis
p2021
I37488
sVP Awana
p2022
I323131
sVNC Johnson
p2023
I55528
sVBR Blair
p2024
I36299
sVAsif Mujtaba
p2025
I39013
sVMJC Allom
p2026
I8524
sVKN Amalean
p2027
I48117
sVMW Gatting
p2028
I13340
sVV Rathour
p2029
I33120
sVERH Toshack
p2030
I7960
sVJP Fellows-Smith
p2031
I45041
sVMS Wade
p2032
I230193
sVFR Spofforth
p2033
I7663
sVS Elworthy
p2034
I44960
sVAN Connolly
p2035
I4613
sVSP Mukherjee
p2036
I31048
sVG Gunn
p2037
I13489
sVED Weekes
p2038
I53241
sVCEB Rice
p2039
I46976
sVP Roy
p2040
I33187
sVUT Khawaja
p2041
I215155
sVJB Iverson
p2042
I5980
sVCG Butts
p2043
I51241
sVAmir Elahi
p2044
I38997
sVRR Sarwan
p2045
I52969
sVT Greenhough
p2046
I13446
sVEA Essop-Adam
p2047
I55406
sVCA Pujara
p2048
I32540
sVGK Khoda
p2049
I30107
sVPM Hornibrook
p2050
I5707
sVKJ Funston
p2051
I45081
sVP Hutchinson
p2052
I45463
sVJB Bolus
p2053
I9142
sVSalman Butt
p2054
I42683
sVRR Hendricks
p2055
I269280
sVRJD Jamshedji
p2056
I29674
sVJA Snow
p2057
I20282
sVPJW Allott
p2058
I8526
sVK Zondo
p2059
I318842
sVRT Ponting
p2060
I7133
sVFS Ahangama
p2061
I48116
sVSCG MacGill
p2062
I6441
sVAB McDonald
p2063
I6553
sVJKC Holt
p2064
I52186
sVLS Butler
p2065
I51240
sVFS Trueman
p2066
I21600
sVRR Kulkarni
p2067
I30151
sVEL St Hill
p2068
I52950
sVKADM Fernando
p2069
I48821
sVAJ McKay
p2070
I38005
sVSaleem Jaffar
p2071
I42879
sVEhteshamuddin
p2072
I40067
sVS Aravind
p2073
I290632
sVRA Hutton
p2074
I14336
sVBE Young
p2075
I8453
sVBW Hilfenhaus
p2076
I5941
sVZahoor Elahi
p2077
I43701
sVTanvir Mehdi
p2078
I43274
sVJJ Krejza
p2079
I6235
sVC Ramaswami
p2080
I33059
sVMR Marsh
p2081
I272450
sVHG Vivian
p2082
I38712
sVA Wood
p2083
I22496
sVAH Jarvis
p2084
I6014
sVDR Doshi
p2085
I28107
sVJS Solomon
p2086
I52944
sVR Rampaul
p2087
I52912
sVID Buys
p2088
I44147
sVSM Nurse
p2089
I52636
sVLD Madushanka
p2090
I428366
sVSLV Raju
p2091
I33044
sVWS Farrer
p2092
I45037
sVAK Roy
p2093
I33182
sVAsif Mahmood
p2094
I39011
sVGhulam Ali
p2095
I40305
sVArshad Ayub
p2096
I26290
sVPS Masvaure
p2097
I232442
sVRC Russell
p2098
I19500
sVWFE Marx
p2099
I46184
sVSajid Ali
p2100
I42610
sVF Behardien
p2101
I44410
sVT Campbell
p2102
I44421
sVP Mustard
p2103
I17185
sVPHJ Trimborn
p2104
I47554
sVNAM McLean
p2105
I52430
sVNBF Mann
p2106
I46168
sVBW Yuile
p2107
I38930
sVJN Snape
p2108
I20278
sVCBRLS Kumara
p2109
I784375
sVRW Morgan
p2110
I37727
sVRA Duff
p2111
I4985
sVTL Fernando
p2112
I48808
sVTT Samaraweera
p2113
I50424
sVFR Martin
p2114
I52426
sVRWV Robins
p2115
I19450
sVRR Dower
p2116
I44719
sVRT Crandon
p2117
I275943
sVGS Ramchand
p2118
I33062
sVS Abrahams
p2119
I43909
sVG Fowler
p2120
I12884
sVBS Bedi
p2121
I26875
sVAH Bakewell
p2122
I8960
sVAA Baig
p2123
I26817
sVDBL Powell
p2124
I52790
sVG Kirsten
p2125
I45813
sVPankaj Singh
p2126
I32973
sVMJ Di Venuto
p2127
I4951
sVHJH Marshall
p2128
I37696
sVNadeem Ghauri
p2129
I42044
sVEJ Gray
p2130
I37103
sVEL Bartlett
p2131
I51215
sVIWG Johnson
p2132
I6100
sVRS Madugalle
p2133
I49623
sVKamran Hussain
p2134
I41058
sVRT Robinson
p2135
I19445
sVMohsin Khan
p2136
I41303
sVCMH Hathorn
p2137
I45417
sVB Laughlin
p2138
I315623
sVRP de Groen
p2139
I36826
sVCC McDonald
p2140
I6554
sVRT Hart
p2141
I37240
sVMJF Shrimpton
p2142
I38388
sVR Dhanraj
p2143
I51649
sVWasim Raja
p2144
I43553
sVJM Sims
p2145
I20200
sVCS Pandit
p2146
I32179
sVPJ Hughes
p2147
I272364
sVPA Patel
p2148
I32242
sVHL Collins
p2149
I4602
sVST Banerjee
p2150
I26853
sVBP Patterson
p2151
I52671
sVMS Tshabalala
p2152
I47663
sVTW Wall
p2153
I8142
sVC Sharma
p2154
I33949
sVBM Wheeler
p2155
I440523
sVA Rose-Innes
p2156
I46996
sVRO Collinge
p2157
I36606
sVR Swetman
p2158
I20436
sVIB Cromb
p2159
I36618
sVT Taibu
p2160
I55805
sVM Azharuddin
p2161
I26329
sVA Lyth
p2162
I251721
sVGK Bose
p2163
I26966
sVJJ Kelly
p2164
I6136
sVPG Joshi
p2165
I29721
sVAM Ellis
p2166
I36993
sVR Subba Row
p2167
I20406
sVR Kilner
p2168
I15884
sVK Cranston
p2169
I10862
sVPD Lashley
p2170
I52340
sVHF Boyle
p2171
I4183
sVCI Dunusinghe
p2172
I48473
sVLR Johnson
p2173
I52280
sVGJ Batty
p2174
I9042
sVWV Raman
p2175
I33058
sVCE Eksteen
p2176
I44954
sVVA Singh
p2177
I399276
sVMD Bell
p2178
I36294
sVImad Wasim
p2179
I227758
sVBW Luckhurst
p2180
I16370
sVHJH Scott
p2181
I7581
sVGS Ballance
p2182
I232438
sVM van Jaarsveld
p2183
I47700
sVSV Manjrekar
p2184
I30934
sVH Philipson
p2185
I18516
sVYasir Shah
p2186
I43685
sVPR George
p2187
I232287
sVAV Mankad
p2188
I30938
sVUmar Amin
p2189
I288211
sVAC Dawson
p2190
I44682
sVJO Holder
p2191
I391485
sVJV Saunders
p2192
I7564
sVTS Worthington
p2193
I22526
sVKS Indrajitsinhji
p2194
I29533
sVSC Stayers
p2195
I52947
sVJA Warrican
p2196
I432214
sVM Kaif
p2197
I29990
sVCL Hooper
p2198
I52066
sVGR Viswanath
p2199
I35712
sVCS Marriott
p2200
I16903
sVDN Crookes
p2201
I44486
sVDE Hoare
p2202
I5669
sVMH Yardy
p2203
I23523
sVGP Bilby
p2204
I36296
sVCT Radley
p2205
I19316
sVRW Blair
p2206
I36300
sVMS Nichols
p2207
I18021
sVGF Lawson
p2208
I6272
sVVJ Marks
p2209
I16899
sVRO Jenkins
p2210
I15495
sVTP Horan
p2211
I5705
sVSTR Binny
p2212
I27223
sVMW Goodwin
p2213
I55456
sVEG Bock
p2214
I44088
sVDSBP Kuruppu
p2215
I49368
sVRM Poore
p2216
I46776
sVEA Brandes
p2217
I55267
sVMS Kasprowicz
p2218
I6126
sVAG Ganteaume
p2219
I51874
sVFazal Mahmood
p2220
I40092
sVRL Powell
p2221
I52681
sVDNT Zoysa
p2222
I51050
sVP Kumar
p2223
I30732
sVOA Shah
p2224
I20123
sVRG Hart
p2225
I37239
sVPJ Newport
p2226
I18012
sVJW Trumble
p2227
I7978
sVTM Moody
p2228
I6628
sVCP Mead
p2229
I16993
sVIftikhar Anjum
p2230
I40591
sVATW Grout
p2231
I5449
sVLPJ O'Brien
p2232
I6989
sVPEW Jones
p2233
I52220
sVMRCN Bandaratilleke
p2234
I48298
sVSJ Rixon
p2235
I7360
sVAK Sengupta
p2236
I33895
sVS Jeganathan
p2237
I49212
sVAsad Shafiq
p2238
I316397
sVAN Ranasinghe
p2239
I50241
sVCM Christiani
p2240
I51471
sVGH Hirst
p2241
I14220
sVNW Bracken
p2242
I4185
sVN Kapil Dev
p2243
I30028
sVSI Mahmood
p2244
I17944
sVME Chapple
p2245
I36602
sVAW Greig
p2246
I13463
sVHB Cameron
p2247
I44419
sVA Fielder
p2248
I12835
sVHon.IFW Bligh
p2249
I9127
sVMohsin Kamal
p2250
I41301
sVCEH Croft
p2251
I51485
sVCT Mutombodzi
p2252
I333001
sVA Symonds
p2253
I7702
sVGM Carew
p2254
I51463
sVR Pilling
p2255
I18536
sVCV Gadkari
p2256
I28751
sVMC Henriques
p2257
I5961
sVLA King
p2258
I52293
sVA Sandham
p2259
I20058
sVAH McKinnon
p2260
I46210
sVGursharan Singh
p2261
I28884
sVR Frylinck
p2262
I45204
sVBJ Diamanti
p2263
I36950
sVDC Parkin
p2264
I46729
sVMohammad Ilyas
p2265
I41286
sVIDK Salisbury
p2266
I20051
sVMansoor Akhtar
p2267
I41263
sVMD Crowe
p2268
I36622
sVE Leie
p2269
I46149
sVCDUS Weerasinghe
p2270
I50838
sVJDA O'Connor
p2271
I6992
sVNJ Reardon
p2272
I7529
sVTW Cartwright
p2273
I10679
sVDK Butler
p2274
I51292
sVKabir Khan
p2275
I41026
sVRG Nadkarni
p2276
I31760
sVEAV Williams
p2277
I53232
sVNT Paranavitana
p2278
I50181
sVMN Nawaz
p2279
I49767
sVWRS de Silva
p2280
I48492
sVTG Evans
p2281
I12543
sVPP Ojha
p2282
I32130
sVPL van der Merwe
p2283
I47692
sVT Yohannan
p2284
I36080
sVNJN Hawke
p2285
I5611
sVGA Manou
p2286
I6480
sVCH Gayle
p2287
I51880
sVAG Wharf
p2288
I22380
sVMJ Hoggard
p2289
I14236
sVB Sutcliffe
p2290
I38413
sVGM Guard
p2291
I28861
sVMDKJ Perera
p2292
I300631
sVR Illingworth
p2293
I15385
sVSJ Benn
p2294
I51248
sVCB Wishart
p2295
I55854
sVBAW Mendis
p2296
I268739
sVDW Headley
p2297
I14127
sVIK Pathan
p2298
I32685
sVCJ Anderson
p2299
I277662
sVVV Kumar
p2300
I30173
sVPJ Allan
p2301
I3953
sVHH Massie
p2302
I6517
sVJP Agnew
p2303
I8501
sVMG Bevan
p2304
I4144
sVKA Maharaj
p2305
I267724
sVHD Ackerman
p2306
I43913
sVG Ulyett
p2307
I22146
sVCM Tuckett
p2308
I53132
sVST Jayasuriya
p2309
I49209
sVK Farnes
p2310
I12812
sVJL Hendriks
p2311
I52053
sVKOA Powell
p2312
I252932
sVPG Coman
p2313
I36608
sVDJG Sammy
p2314
I53115
sVBAG Murray
p2315
I37734
sVH Dean
p2316
I11855
sVLPC Silva
p2317
I50431
sVHGJM Kulatunga
p2318
I49394
sVBL Irvine
p2319
I45696
sVEJ Chatfield
p2320
I36603
sVNS Yadav
p2321
I36064
sVRev.DS Sheppard
p2322
I20159
sVVD Philander
p2323
I46945
sVPJP Burge
p2324
I4241
sVHG Gaekwad
p2325
I28756
sVRashid Khan
p2326
I42421
sVFL Reifer
p2327
I52808
sVKF Semple
p2328
I52928
sVDM Lewis
p2329
I52342
sVM Leyland
p2330
I16287
sVTJ Laughlin
p2331
I6261
sVZ de Bruyn
p2332
I44689
sVJM Holland
p2333
I230368
sVAK Perera
p2334
I300629
sVLG Hylton
p2335
I52073
sVTS Mills
p2336
I459257
sVJB Hobbs
p2337
I14225
sVSC Joseph
p2338
I52206
sVKR Meherhomji
p2339
I30970
sVWH Moule
p2340
I6658
sVUsman Khan
p2341
I697279
sVTM Alderman
p2342
I3943
sVDAG Fletcher
p2343
I55424
sVMA Noble
p2344
I6936
sVN Ranatunga
p2345
I50246
sVPS Jayaprakashdaran
p2346
I49344
sVMSK Prasad
p2347
I32346
sVR Abel
p2348
I8480
sVMV Fleming
p2349
I12850
sVS Tyagi
p2350
I317784
sVLJ Hamilton
p2351
I37228
sVSM Curran
p2352
I662973
sVG Thornton
p2353
I47556
sVC Hill
p2354
I5662
sVC Gladwin
p2355
I13381
sVRD Robinson
p2356
I7376
sVCT Sarwate
p2357
I33859
sVS O'Linn
p2358
I46677
sVC Newberry
p2359
I46574
sVCC Depeiaza
p2360
I51652
sVJE Emburey
p2361
I12514
sVJW Burke
p2362
I4242
sVBJ McKechnie
p2363
I37707
sVJN Maguire
p2364
I6460
sVJFW Nicolson
p2365
I46580
sVJR Ratnayeke
p2366
I50250
sVK Thomson
p2367
I38611
sVRameez Raja (2)
p2368
I232489
sVDD Blackie
p2369
I4154
sVSG Peall
p2370
I55691
sVMD Shanaka
p2371
I437316
sVDR Martyn
p2372
I6513
sVSC Khanna
p2373
I30077
sVTG Shaw
p2374
I47184
sVG Chapple
p2375
I10712
sVWAS Oldfield
p2376
I7003
sVMEZ Ghazali
p2377
I40302
sVRNS Hobbs
p2378
I14227
sVSK Sharma
p2379
I33963
sVWR James
p2380
I55524
sVHW Taylor
p2381
I47535
sVPWA Mulder
p2382
I698189
sVCB Mpofu
p2383
I55633
sVS Samarawickrama
p2384
I629076
sVEP Nupen
p2385
I46594
sVVB Chandrasekhar
p2386
I27592
sVDG Phadkar
p2387
I32309
sVFA Rose
p2388
I52821
sVMJ Slater
p2389
I7629
sVHumayun Farhat
p2390
I40383
sVShahid Mahmood
p2391
I42645
sVGH Mudie
p2392
I52438
sVRL Sanghvi
p2393
I34214
sVDAR Moloney
p2394
I37725
sVWL Murdoch
p2395
I6669
sVPJ Moor
p2396
I333000
sVVR Aaron
p2397
I360911
sVJC Hill
p2398
I5663
sVN Hussain
p2399
I14325
sVA Kuruvilla
p2400
I30182
sVAG Milkha Singh
p2401
I31004
sVSM Davies
p2402
I12450
sVNLTC Perera
p2403
I233514
sVH Sutcliffe
p2404
I20413
sVEMDY Munaweera
p2405
I304735
sVKJ Abbott
p2406
I297583
sVGE Bradburn
p2407
I36308
sVDS Steele
p2408
I20345
sVJC Buttler
p2409
I308967
sVSO Hetmyer
p2410
I670025
sVKM Dabengwa
p2411
I55388
sVPL Mhambrey
p2412
I30999
sVPH Edmonds
p2413
I12486
sVGM Turner
p2414
I38622
sVAaqib Javed
p2415
I38970
sVMK Tiwary
p2416
I35565
sVFT Badcock
p2417
I36283
sVVL Manjrekar
p2418
I30936
sVAPB Tennekoon
p2419
I50742
sVGP Wickramasinghe
p2420
I50848
sVAM Phangiso
p2421
I46942
sVOE Wynne
p2422
I47920
sVMJ McClenaghan
p2423
I319439
sVAF Kippax
p2424
I6154
sVNM Coulter-Nile
p2425
I261354
sVAPF Chapman
p2426
I10705
sVAR Patel
p2427
I554691
sVJF Crapp
p2428
I10864
sVC Jonker
p2429
I222320
sVAzhar Mahmood
p2430
I39024
sVJV Coney
p2431
I36609
sVB Kumar
p2432
I326016
sVBJ Hodge
p2433
I5674
sVAMB Rowan
p2434
I47003
sVBJT Bosanquet
p2435
I9158
sVCFW Allcott
p2436
I36177
sVTK Musakanda
p2437
I596375
sVAG Kripal Singh
p2438
I30132
sVSD Jack
p2439
I45711
sVF Martin
p2440
I16918
sVDN Sardesai
p2441
I33850
sVAamer Hameed
p2442
I38963
sVHJ Howarth
p2443
I37255
sVCM Spearman
p2444
I38401
sVRG Samuels
p2445
I52922
sVRJMGM Rupasinghe
p2446
I218430
sVNA David
p2447
I28149
sVDC Cleverley
p2448
I36604
sVMS Hardikar
p2449
I29268
sVRP Singh
p2450
I35280
sVSHT Kandamby
p2451
I49363
sVADS Fletcher
p2452
I51862
sVSB Styris
p2453
I38407
sVJK Silva
p2454
I50482
sVKG Perera
p2455
I49857
sVHH Francis
p2456
I45072
sVD Mohammed
p2457
I52490
sVRA McLean
p2458
I46212
sVDS Lehmann
p2459
I6285
sVIDS Smith
p2460
I38396
sVJW Gleeson
p2461
I5398
sVRJ Campbell
p2462
I4527
sVBC Strang
p2463
I55756
sVMJ Greatbatch
p2464
I37105
sVYuvraj Singh
p2465
I36084
sVSaeed Azad
p2466
I42607
sVHAG Anthony
p2467
I51108
sVSW Masakadza
p2468
I343529
sVML Apte
p2469
I26269
sVKEA Upashantha
p2470
I50791
sVRWT Key
p2471
I15876
sVES Atkinson
p2472
I51112
sVQaiser Abbas
p2473
I42383
sVCJ Adams
p2474
I8487
sVD Williams
p2475
I53230
sVLA Dawson
p2476
I211855
sVPT Collins
p2477
I51479
sVMohammad Nazir
p2478
I41294
sVJC Watkins
p2479
I47869
sVG Duckworth
p2480
I11946
sVWK Lees
p2481
I37605
sVHK Olonga
p2482
I55675
sVGTS Stevens
p2483
I20369
sVWPUJC Vaas
p2484
I50804
sVGC Martin
p2485
I55579
sVS Weerakoon
p2486
I50914
sVHM Goonatilleke
p2487
I49097
sVR Appleyard
p2488
I8554
sVAG Steel
p2489
I20350
sVCT Patankar
p2490
I32220
sVJA Raval
p2491
I277914
sVMP Fernandes
p2492
I51789
sVPV Simmons
p2493
I52934
sVSS Tiwary
p2494
I35390
sVN M'shangwe
p2495
I392944
sVPA Jaques
p2496
I6060
sVZ Khan
p2497
I30102
sVJS Foster
p2498
I12877
sVKG Viljoen
p2499
I47733
sVDJ Callaghan
p2500
I44416
sVLR Tuckett
p2501
I47558
sVB Muzarabani
p2502
I827051
sVID Craig
p2503
I4652
sVKLT Arthurton
p2504
I51110
sVG Onions
p2505
I18389
sVMushtaq Mohammad
p2506
I41318
sVWU Tharanga
p2507
I50747
sVEA Halliwell
p2508
I45393
sVGE Corling
p2509
I4628
sVJM Taylor
p2510
I7921
sVCB van Ryneveld
p2511
I47704
sVRE Grieveson
p2512
I45246
sVBabar Azam
p2513
I348144
sVMohammed Siraj
p2514
I940973
sVHaafiz Shahid
p2515
I40369
sVCN Frank
p2516
I45075
sVNHCD Theunissen
p2517
I47568
sVSA Abbott
p2518
I398666
sVAK Markram
p2519
I600498
sVHaseeb Ahsan
p2520
I40380
sVMJK Smith
p2521
I20255
sVAzmat Rana
p2522
I39026
sVAG Barrett
p2523
I51213
sVCP Senanayake
p2524
I50426
sVGE Peckover
p2525
I55692
sVVJ Scott
p2526
I38384
sVM Muralitharan
p2527
I49636
sVJA Young
p2528
I23534
sVCL Smith
p2529
I20233
sVJW D'Arcy
p2530
I36823
sVN Wagner
p2531
I233713
sVA Mitchell
p2532
I17045
sVAP Weerakkody
p2533
I50837
sVJM Parks
p2534
I18435
sVAshfaq Ahmed
p2535
I39007
sVASM Oakman
p2536
I18248
sVAU Rashid
p2537
I244497
sVA Turner
p2538
I7989
sVDT Dewdney
p2539
I51647
sVSK Coen
p2540
I44451
sVGB Troup
p2541
I38617
sVBD Morrison
p2542
I37728
sVAHP Scott
p2543
I53110
sVTF Johnson
p2544
I52202
sVMJ Henry
p2545
I506612
sVCL King
p2546
I52290
sVCO Browne
p2547
I51232
sVBKG Mendis
p2548
I629074
sVR Telemachus
p2549
I47539
sVSG Gedye
p2550
I37099
sVRA Young
p2551
I38931
sVRA Gleeson
p2552
I45231
sVAJ Tudor
p2553
I21607
sVAA Noffke
p2554
I6938
sVJT Hearne
p2555
I14133
sVLS Birkett
p2556
I51224
sVCR Matthews
p2557
I46189
sVTC Bruce
p2558
I707113
sVSW Ambris
p2559
I348054
sVJL Denly
p2560
I12454
sVDK Liyanage
p2561
I49554
sVV Subramanya
p2562
I34215
sVTR Birt
p2563
I4292
sVAP Devcich
p2564
I36948
sVSB Bangar
p2565
I27225
sVV Sibanda
p2566
I55787
sVWVS Ling
p2567
I45993
sVAJ Mackay
p2568
I55568
sVER Fernando
p2569
I48804
sVRT Barber
p2570
I36287
sVNWD Yardley
p2571
I23521
sVGJ Bailey
p2572
I4451
sVAsif Iqbal
p2573
I39010
sVDW Carr
p2574
I10669
sVMohammad Irfan
p2575
I429981
sVVJ Wells
p2576
I22365
sVAR Caddick
p2577
I10633
sVIrfan Bhatti
p2578
I40575
sVD Lloyd
p2579
I16318
sVMohammad Hafeez
p2580
I41434
sVRJ Crisp
p2581
I44481
sVAlimuddin
p2582
I38992
sVJL Pattinson
p2583
I272465
sVA Ward
p2584
I22292
sVB Warnapura
p2585
I50835
sVMA Butcher
p2586
I9327
sVS Matsikenyeri
p2587
I55612
sVGG Hall
p2588
I45397
sVST Clarke
p2589
I51477
sVMJ Stewart
p2590
I20376
sVVR Brown
p2591
I36310
sVYounis Ahmed
p2592
I43648
sVRP Arnold
p2593
I48122
sVCJ Tavare
p2594
I21466
sVWE Astill
p2595
I8576
sVPH Parfitt
p2596
I18411
sVWJ Cronje
p2597
I44485
sVJ Briggs
p2598
I9223
sVTM Dowlin
p2599
I51660
sVWH Milton
p2600
I46231
sVGK Bruk-Jackson
p2601
I55276
sVGC Tonge
p2602
I53153
sVKD Boyce
p2603
I51229
sVAD Mathews
p2604
I49764
sVCL Vincent
p2605
I47736
sVCFK van Wyk
p2606
I47780
sVDJ Murray
p2607
I37735
sVCN Evans
p2608
I55408
sVRB McCosker
p2609
I6547
sVJW Hearne
p2610
I14135
sVAamer Yamin
p2611
I434429
sVRW Chakabva
p2612
I293831
sVMN Samuels
p2613
I52983
sVMohammad Aslam
p2614
I41283
sVA D'Souza
p2615
I40041
sVM Shezi
p2616
I230860
sVAshraf Ali
p2617
I39008
sVBilawal Bhatti
p2618
I343305
sVFH Tyson
p2619
I21644
sVDJ Cullen
p2620
I4882
sVGA Paterson
p2621
I55684
sVN Dickwella
p2622
I429754
sVBE Hendricks
p2623
I379927
sVFAW Freer
p2624
I5325
sVSaeed Ajmal
p2625
I42699
sVDAS Gunaratne
p2626
I360456
sVDP Samaraweera
p2627
I50422
sVPAM Hands
p2628
I45404
sVJT Brown
p2629
I9263
sVRJW Topley
p2630
I461632
sVAL Phehlukwayo
p2631
I540316
sVWHB Frank
p2632
I45076
sVJC Adams
p2633
I51100
sVMG Vandort
p2634
I50809
sVJalal-ud-Din
p2635
I40872
sVLS Livingstone
p2636
I403902
sVBS Browne
p2637
I51278
sVInzamam-ul-Haq
p2638
I40570
sVAbdur Rauf
p2639
I39084
sVWKD Perkins
p2640
I230557
sVET Willett
p2641
I53227
sVAJY Hopkins
p2642
I5703
sVSR Tendulkar
p2643
I35320
sVDAJ Holford
p2644
I52064
sVBCJ Cutting
p2645
I230371
sVA Hurwood
p2646
I5733
sVG Kishenchand
p2647
I30117
sVLD Chandimal
p2648
I300628
sVCJ Boyce
p2649
I326625
sVE Jones
p2650
I6046
sVT Panyangara
p2651
I55705
sVShafiq Ahmed
p2652
I42636
sVEL McCormick
p2653
I6546
sVA McGrath
p2654
I16975
sVSB Doull
p2655
I36835
sVRR Rossouw
p2656
I318845
sVRC Shukla
p2657
I34020
sVSM Boland
p2658
I446548
sVSD Robson
p2659
I272485
sVRR Jumadeen
p2660
I52209
sVM Watkinson
p2661
I22328
sVRiaz Afridi
p2662
I42590
sVCS Dempster
p2663
I36827
sVS van Zyl
p2664
I267479
sVF du Plessis
p2665
I44828
sVPSP Handscomb
p2666
I334337
sVSA Jayasinghe
p2667
I49207
sVG MacGregor
p2668
I16862
sVCD Matthews
p2669
I6523
sVNGB Cook
p2670
I10797
sVFL Fane
p2671
I12807
sVV Permaul
p2672
I274921
sVMJ Nicholson
p2673
I6925
sVCP Schofield
p2674
I20073
sVAA Mallett
p2675
I6472
sVDG Bradman
p2676
I4188
sVWR Endean
p2677
I44964
sVDH Brain
p2678
I55265
sVJaved Miandad
p2679
I40879
sVMJ Hilton
p2680
I14213
sVT Henderson
p2681
I45434
sVGR Marsh
p2682
I6499
sVJO Taylor
p2683
I53152
sVFawad Alam
p2684
I40250
sVAD Nourse
p2685
I46589
sVJE Root
p2686
I303669
sVKashif Raza
p2687
I41036
sVDW Hookes
p2688
I5696
sVLS Brown
p2689
I44132
sVDG Sewell
p2690
I38386
sVKP Walmsley
p2691
I38740
sVR Graham
p2692
I45242
sVRL Fuller
p2693
I51799
sVKW Hough
p2694
I37252
sVA Hill
p2695
I14197
sVAI Kallicharran
p2696
I52285
sVS Mushtaq Ali
p2697
I31061
sVKJ Silva
p2698
I50429
sVAR Butcher
p2699
I9323
sVP Krishnamurthy
p2700
I30135
sVMC Ilott
p2701
I15388
sVCP Buckenham
p2702
I9280
sVMunir Malik
p2703
I41313
sVHanif Mohammad
p2704
I40373
sVF de Wet
p2705
I44930
sVTL Tsolekile
p2706
I47630
sVAW White
p2707
I53223
sVJJ Crowe
p2708
I36620
sVJE Morris
p2709
I17102
sVHK Bennett
p2710
I226493
sVRS Morton
p2711
I52445
sVJP Millmow
p2712
I37720
sVMA Beer
p2713
I307495
sVAR Kapoor
p2714
I30030
sVJ Worrall
p2715
I8260
sVEW Dempster
p2716
I36828
sVRameez Raja
p2717
I42420
sVAE Greenidge
p2718
I51899
sVVS Ransford
p2719
I7308
sVR Clarke
p2720
I11724
sVRizwan-uz-Zaman
p2721
I42428
sVMC Snedden
p2722
I38398
sVWR Hammond
p2723
I14022
sVMM Sharma
p2724
I537119
sVSohail Tanvir
p2725
I43265
sVL Amarnath
p2726
I26223
sVJT Murray
p2727
I17130
sVNaved Anjum
p2728
I42062
sVRR Singh
p2729
I34059
sVTC Lowry
p2730
I37610
sVSV Nayak
p2731
I31808
sVPIC Thompson
p2732
I53130
sVI Sharma
p2733
I236779
sVW Watson
p2734
I38742
sVHM McGirr
p2735
I37704
sVEJM Cowan
p2736
I4531
sVBR Taylor
p2737
I38609
sVWM Clark
p2738
I4584
sVRJ Ratnayake
p2739
I50249
sVSami Aslam
p2740
I547079
sVGA Lamb
p2741
I55562
sVWPA Crawford
p2742
I4656
sVShahid Afridi
p2743
I42639
sVGJ Thompson
p2744
I21528
sVSP Fleming
p2745
I37000
sVN Phillip
p2746
I52678
sVRMH Cottam
p2747
I10824
sVCAR Duckworth
p2748
I44727
sVParvez Rasool
p2749
I378496
sVG Boycott
p2750
I9187
sVPR Reiffel
p2751
I7326
sVN Chopra
p2752
I27641
sVHWR Cartwright
p2753
I557295
sVDW Steyn
p2754
I47492
sVAJ Fothergill
p2755
I12883
sVJJC Lawson
p2756
I52413
sVSAR Silva
p2757
I50432
sVDJ Colley
p2758
I4600
sVVRV Singh
p2759
I35281
sVHarbhajan Singh
p2760
I29264
sVDL Haynes
p2761
I52047
sVCRD Fernando
p2762
I48835
sVA Dananjaya
p2763
I574178
sVDC Boon
p2764
I4169
sVDR Briggs
p2765
I310107
sVCS Nayudu
p2766
I31813
sVCFW Hime
p2767
I45442
sVJoginder Sharma
p2768
I29976
sVDJ Insole
p2769
I15399
sVKC Ibrahim
p2770
I29529
sVMoin-ul-Atiq
p2771
I41304
sVSC Kuggeleijn
p2772
I539548
sVNajaf Shah
p2773
I42160
sVJA Rennie
p2774
I55714
sVY Venugopal Rao
p2775
I35805
sVDP Viljoen
p2776
I55825
sVDL Freeman
p2777
I37005
sVArif Butt
p2778
I39003
sVJT Ball
p2779
I414990
sVCG Halse
p2780
I45399
sVBA Williams
p2781
I8231
sVCC Griffith
p2782
I51907
sVJ Humphries
p2783
I14306
sVAT Carey
p2784
I326434
sVTE Jesty
p2785
I15511
sVSS Pathirana
p2786
I212756
sVAR Morris
p2787
I6644
sVKAJ Roach
p2788
I230553
sVKJ O'Keeffe
p2789
I7002
sVGA Bartlett
p2790
I36288
sVIT Shillingford
p2791
I52931
sVNaved-ul-Hasan
p2792
I42272
sVAMN Munasinghe
p2793
I49634
sVMJ Susskind
p2794
I47259
sVRL Johnson
p2795
I15522
sVRH Scott
p2796
I38383
sVDM Wellham
p2797
I8198
sVKL Rahul
p2798
I422108
sVNasir Jamshed
p2799
I42321
sVLA Markham
p2800
I46173
sVKR Rickards
p2801
I52813
sVDM de Silva
p2802
I465793
sVRJ Bright
p2803
I4208
sVEG Arnold
p2804
I8565
sVJD Ryder
p2805
I38373
sVRAS Lakmal
p2806
I49619
sVKL Wishart
p2807
I53235
sVRR Powar
p2808
I32391
sVKMDN Kulasekara
p2809
I49535
sVDD Hindlekar
p2810
I29297
sVPCR Tufnell
p2811
I21611
sVSJ Cook
p2812
I44465
sVL Sivaramakrishnan
p2813
I34074
sVJB Commins
p2814
I44455
sVEZ Matambanadzo
p2815
I55582
sVH Foley
p2816
I37001
sVRW Sims
p2817
I55774
sVSadiq Mohammad
p2818
I42601
sVOJ Phillips
p2819
I315585
sVGA Kempis
p2820
I45794
sVDA Warner
p2821
I219889
sVKS Ranjitsinhji
p2822
I19331
sVAkhtar Sarfraz
p2823
I38986
sVCA Merry
p2824
I52434
sVADR Campbell
p2825
I55301
sVMJ Clarke
p2826
I4578
sVTW Routledge
p2827
I47002
sVC Wesley
p2828
I47879
sVG Alexander
p2829
I3944
sVJ Hunter
p2830
I14312
sVDCS Compton
p2831
I10777
sVDRA Gehrs
p2832
I5375
sVWR Playle
p2833
I38125
sVSHA Rance
p2834
I395057
sVHasan Raza
p2835
I40378
sVLW Stott
p2836
I38405
sVGJ Maxwell
p2837
I325026
sVRJ Nicol
p2838
I38058
sVYA Abdulla
p2839
I224367
sVLR Shukla
p2840
I34019
sVL Tuckett
p2841
I47559
sVCEL Stuart
p2842
I52960
sVMG Burmester
p2843
I55279
sVP Bhandari
p2844
I26897
sVUDU Chandana
p2845
I48369
sVDA Gunawardene
p2846
I49010
sVKK Nair
p2847
I398439
sVUT Yadav
p2848
I376116
sVPL Taylor
p2849
I7926
sVKL Hutchings
p2850
I14327
sVDJ Cullinan
p2851
I44489
sVRM Hogg
p2852
I5685
sVAG Huckle
p2853
I55502
sVKA Archer
p2854
I3978
sVSW Tait
p2855
I8076
sVCG Rowe
p2856
I38256
sVLiaqat Ali
p2857
I41246
sVRW Tolchard
p2858
I21550
sVCP Carter
p2859
I44426
sVJR Hammond
p2860
I5569
sVUWMBCA Welegedara
p2861
I51019
sVTM Dilshan
p2862
I48472
sVRashid Latif
p2863
I42423
sVRA Woolmer
p2864
I22520
sVMAWR Madurasinghe
p2865
I49624
sVARC Fraser
p2866
I12909
sVAzhar Khan
p2867
I39022
sVPervez Mir
p2868
I42323
sVAB Howard
p2869
I52067
sVG Gladstone
p2870
I51888
sVMufasir-ul-Haq
p2871
I41309
sVPM Nevill
p2872
I6973
sVMA Ealham
p2873
I12466
sVLA Stricker
p2874
I47251
sVRD Woolley
p2875
I8256
sVWM Darling
p2876
I4900
sVTR Gripper
p2877
I55463
sVRC Saxena
p2878
I33882
sVRG Twose
p2879
I38624
sVAJ Lamb
p2880
I16178
sVU Chatterjee
p2881
I27603
sVHH Gibbs
p2882
I45224
sVR Sharma
p2883
I272994
sVMR Pydanna
p2884
I52683
sVPI Pocock
p2885
I18557
sVBG Rogers
p2886
I55736
sVML Hayden
p2887
I5616
sVCW Henderson
p2888
I45431
sVKC Bland
p2889
I44084
sVCOC Pearse
p2890
I46741
sVJH Edrich
p2891
I12490
sVBA Richards
p2892
I46982
sVMC Bird
p2893
I9099
sVNH Fairbrother
p2894
I12803
sVSJ Rhodes
p2895
I19374
sVLS Baker
p2896
I51431
sVGJ Whittall
p2897
I55848
sVImran Abbas
p2898
I40580
sVGA Chevalier
p2899
I44438
sVDB Close
p2900
I10754
sVLWS Kaluperuma
p2901
I49487
sVKCG Benjamin
p2902
I51218
sVGD Phillips
p2903
I823509
sVBP Martin
p2904
I37745
sVPK Lee
p2905
I6280
sVSHU Karnain
p2906
I49364
sVIR Bishop
p2907
I51226
sVCEL Jones
p2908
I52203
sVAK Davidson
p2909
I4902
sVShan Masood
p2910
I233901
sVWM Lawry
p2911
I6270
sVJG Leggat
p2912
I37607
sVIqbal Qasim
p2913
I40572
sVFR Foster
p2914
I12875
sVKM Jarvis
p2915
I332996
sVJWHD Boteju
p2916
I48290
sVM Amarnath
p2917
I26225
sVDLS de Silva
p2918
I48453
sVMJ North
p2919
I6943
sVBW Sinclair
p2920
I38390
sVDW Begbie
p2921
I44062
sVM Hendrick
p2922
I14159
sVCL Johnson
p2923
I45729
sVBJ Haddin
p2924
I5560
sVGD Varnals
p2925
I47717
sVGM Fullerton
p2926
I45078
sVML Love
p2927
I6321
sVCGD Burger
p2928
I44076
sVNazar Mohammad
p2929
I42068
sVTJ Zoehrer
p2930
I8468
sVDJ Sincock
p2931
I7623
sVFE Allan
p2932
I3950
sVWE Bowes
p2933
I9181
sVKD Walters
p2934
I8151
sVSN Thakur
p2935
I475281
sVPC Strydom
p2936
I47255
sVAC Hudson
p2937
I45458
sVTM Chappell
p2938
I4561
sVMD Bailey
p2939
I36285
sVR Edwards
p2940
I5124
sVUNK Fernando
p2941
I48809
sVMohammad Sami
p2942
I41324
sVJDF Larter
p2943
I16205
sVMB Loye
p2944
I16362
sVNE Haig
p2945
I13993
sVAJ Traicos
p2946
I55802
sVD Shackleton
p2947
I20115
sVCL Cairns
p2948
I36597
sVSMSM Senanayake
p2949
I273439
sVS Badree
p2950
I51433
sVR Berry
p2951
I9079
sVKTGD Prasad
p2952
I50163
sVWN Slack
p2953
I20206
sVAB de Villiers
p2954
I44936
sVA Nel
p2955
I46569
sVVS Hazare
p2956
I29290
sVAkram Raza
p2957
I38989
sVIA Healy
p2958
I5628
sVK Srikkanth
p2959
I34103
sVAL Thomson
p2960
I7944
sVN Boje
p2961
I44091
sVDA Allen
p2962
I8513
sVHSM Pieris
p2963
I49861
sVAC Bannerman
p2964
I4089
sVRG Sharma
p2965
I34102
sVJF du Toit
p2966
I44743
sVPH Sharma
p2967
I33958
sVDR Flynn
p2968
I37095
sVTA Ward
p2969
I47867
sVA Nehra
p2970
I31820
sVGFJ Liebenberg
p2971
I45984
sVSP Gupte
p2972
I28880
sVJP Crawley
p2973
I10870
sVNaoomal Jaoomal
p2974
I31939
sVIR Siddiqui
p2975
I34026
sVST Callaway
p2976
I4516
sVGurkeerat Singh
p2977
I537124
sVAR Adams
p2978
I36192
sVPJ Loader
p2979
I16324
sVJaved Akhtar
p2980
I40875
sVMH Richardson
p2981
I38251
sVWW Armstrong
p2982
I3982
sVShoaib Mohammad
p2983
I42658
sVA Melville
p2984
I46221
sVJL Kerr
p2985
I37531
sVKhalid Hasan
p2986
I41038
sVPAJ DeFreitas
p2987
I11865
sVGC Grant
p2988
I51896
sVCS Serjeant
p2989
I7594
sVSarandeep Singh
p2990
I34211
sVTL Chatara
p2991
I425639
sVJM Patel
p2992
I32236
sVJC Tredwell
p2993
I21646
sVID Blackwell
p2994
I9117
sVJ Birkenshaw
p2995
I9103
sVT Kumaran
p2996
I30157
sVJT Partridge
p2997
I46736
sVAzhar Ali
p2998
I39037
sVR Benaud
p2999
I4123
sVJP Behrendorff
p3000
I272477
sVL Baichan
p3001
I51209
sVRT Simpson
p3002
I20198
sVMG Webb
p3003
I38744
sVF Mutizwa
p3004
I55641
sVJM Brearley
p3005
I9208
sVTW Graveney
p3006
I13434
sVES Maka
p3007
I30908
sVEAC Hunte
p3008
I52071
sVWP Saha
p3009
I279810
s.